
rtarget:     file format elf64-x86-64


Disassembly of section .init:

0000000000400c60 <_init>:
  400c60:	48 83 ec 08          	sub    $0x8,%rsp
  400c64:	48 8b 05 8d 43 20 00 	mov    0x20438d(%rip),%rax        # 604ff8 <_DYNAMIC+0x1d0>
  400c6b:	48 85 c0             	test   %rax,%rax
  400c6e:	74 05                	je     400c75 <_init+0x15>
  400c70:	e8 2b 01 00 00       	callq  400da0 <__gmon_start__@plt>
  400c75:	48 83 c4 08          	add    $0x8,%rsp
  400c79:	c3                   	retq   

Disassembly of section .plt:

0000000000400c80 <strcasecmp@plt-0x10>:
  400c80:	ff 35 82 43 20 00    	pushq  0x204382(%rip)        # 605008 <_GLOBAL_OFFSET_TABLE_+0x8>
  400c86:	ff 25 84 43 20 00    	jmpq   *0x204384(%rip)        # 605010 <_GLOBAL_OFFSET_TABLE_+0x10>
  400c8c:	0f 1f 40 00          	nopl   0x0(%rax)

0000000000400c90 <strcasecmp@plt>:
  400c90:	ff 25 82 43 20 00    	jmpq   *0x204382(%rip)        # 605018 <_GLOBAL_OFFSET_TABLE_+0x18>
  400c96:	68 00 00 00 00       	pushq  $0x0
  400c9b:	e9 e0 ff ff ff       	jmpq   400c80 <_init+0x20>

0000000000400ca0 <__errno_location@plt>:
  400ca0:	ff 25 7a 43 20 00    	jmpq   *0x20437a(%rip)        # 605020 <_GLOBAL_OFFSET_TABLE_+0x20>
  400ca6:	68 01 00 00 00       	pushq  $0x1
  400cab:	e9 d0 ff ff ff       	jmpq   400c80 <_init+0x20>

0000000000400cb0 <srandom@plt>:
  400cb0:	ff 25 72 43 20 00    	jmpq   *0x204372(%rip)        # 605028 <_GLOBAL_OFFSET_TABLE_+0x28>
  400cb6:	68 02 00 00 00       	pushq  $0x2
  400cbb:	e9 c0 ff ff ff       	jmpq   400c80 <_init+0x20>

0000000000400cc0 <strncmp@plt>:
  400cc0:	ff 25 6a 43 20 00    	jmpq   *0x20436a(%rip)        # 605030 <_GLOBAL_OFFSET_TABLE_+0x30>
  400cc6:	68 03 00 00 00       	pushq  $0x3
  400ccb:	e9 b0 ff ff ff       	jmpq   400c80 <_init+0x20>

0000000000400cd0 <strcpy@plt>:
  400cd0:	ff 25 62 43 20 00    	jmpq   *0x204362(%rip)        # 605038 <_GLOBAL_OFFSET_TABLE_+0x38>
  400cd6:	68 04 00 00 00       	pushq  $0x4
  400cdb:	e9 a0 ff ff ff       	jmpq   400c80 <_init+0x20>

0000000000400ce0 <puts@plt>:
  400ce0:	ff 25 5a 43 20 00    	jmpq   *0x20435a(%rip)        # 605040 <_GLOBAL_OFFSET_TABLE_+0x40>
  400ce6:	68 05 00 00 00       	pushq  $0x5
  400ceb:	e9 90 ff ff ff       	jmpq   400c80 <_init+0x20>

0000000000400cf0 <write@plt>:
  400cf0:	ff 25 52 43 20 00    	jmpq   *0x204352(%rip)        # 605048 <_GLOBAL_OFFSET_TABLE_+0x48>
  400cf6:	68 06 00 00 00       	pushq  $0x6
  400cfb:	e9 80 ff ff ff       	jmpq   400c80 <_init+0x20>

0000000000400d00 <__stack_chk_fail@plt>:
  400d00:	ff 25 4a 43 20 00    	jmpq   *0x20434a(%rip)        # 605050 <_GLOBAL_OFFSET_TABLE_+0x50>
  400d06:	68 07 00 00 00       	pushq  $0x7
  400d0b:	e9 70 ff ff ff       	jmpq   400c80 <_init+0x20>

0000000000400d10 <mmap@plt>:
  400d10:	ff 25 42 43 20 00    	jmpq   *0x204342(%rip)        # 605058 <_GLOBAL_OFFSET_TABLE_+0x58>
  400d16:	68 08 00 00 00       	pushq  $0x8
  400d1b:	e9 60 ff ff ff       	jmpq   400c80 <_init+0x20>

0000000000400d20 <memset@plt>:
  400d20:	ff 25 3a 43 20 00    	jmpq   *0x20433a(%rip)        # 605060 <_GLOBAL_OFFSET_TABLE_+0x60>
  400d26:	68 09 00 00 00       	pushq  $0x9
  400d2b:	e9 50 ff ff ff       	jmpq   400c80 <_init+0x20>

0000000000400d30 <alarm@plt>:
  400d30:	ff 25 32 43 20 00    	jmpq   *0x204332(%rip)        # 605068 <_GLOBAL_OFFSET_TABLE_+0x68>
  400d36:	68 0a 00 00 00       	pushq  $0xa
  400d3b:	e9 40 ff ff ff       	jmpq   400c80 <_init+0x20>

0000000000400d40 <close@plt>:
  400d40:	ff 25 2a 43 20 00    	jmpq   *0x20432a(%rip)        # 605070 <_GLOBAL_OFFSET_TABLE_+0x70>
  400d46:	68 0b 00 00 00       	pushq  $0xb
  400d4b:	e9 30 ff ff ff       	jmpq   400c80 <_init+0x20>

0000000000400d50 <read@plt>:
  400d50:	ff 25 22 43 20 00    	jmpq   *0x204322(%rip)        # 605078 <_GLOBAL_OFFSET_TABLE_+0x78>
  400d56:	68 0c 00 00 00       	pushq  $0xc
  400d5b:	e9 20 ff ff ff       	jmpq   400c80 <_init+0x20>

0000000000400d60 <__libc_start_main@plt>:
  400d60:	ff 25 1a 43 20 00    	jmpq   *0x20431a(%rip)        # 605080 <_GLOBAL_OFFSET_TABLE_+0x80>
  400d66:	68 0d 00 00 00       	pushq  $0xd
  400d6b:	e9 10 ff ff ff       	jmpq   400c80 <_init+0x20>

0000000000400d70 <signal@plt>:
  400d70:	ff 25 12 43 20 00    	jmpq   *0x204312(%rip)        # 605088 <_GLOBAL_OFFSET_TABLE_+0x88>
  400d76:	68 0e 00 00 00       	pushq  $0xe
  400d7b:	e9 00 ff ff ff       	jmpq   400c80 <_init+0x20>

0000000000400d80 <gethostbyname@plt>:
  400d80:	ff 25 0a 43 20 00    	jmpq   *0x20430a(%rip)        # 605090 <_GLOBAL_OFFSET_TABLE_+0x90>
  400d86:	68 0f 00 00 00       	pushq  $0xf
  400d8b:	e9 f0 fe ff ff       	jmpq   400c80 <_init+0x20>

0000000000400d90 <__memmove_chk@plt>:
  400d90:	ff 25 02 43 20 00    	jmpq   *0x204302(%rip)        # 605098 <_GLOBAL_OFFSET_TABLE_+0x98>
  400d96:	68 10 00 00 00       	pushq  $0x10
  400d9b:	e9 e0 fe ff ff       	jmpq   400c80 <_init+0x20>

0000000000400da0 <__gmon_start__@plt>:
  400da0:	ff 25 fa 42 20 00    	jmpq   *0x2042fa(%rip)        # 6050a0 <_GLOBAL_OFFSET_TABLE_+0xa0>
  400da6:	68 11 00 00 00       	pushq  $0x11
  400dab:	e9 d0 fe ff ff       	jmpq   400c80 <_init+0x20>

0000000000400db0 <strtol@plt>:
  400db0:	ff 25 f2 42 20 00    	jmpq   *0x2042f2(%rip)        # 6050a8 <_GLOBAL_OFFSET_TABLE_+0xa8>
  400db6:	68 12 00 00 00       	pushq  $0x12
  400dbb:	e9 c0 fe ff ff       	jmpq   400c80 <_init+0x20>

0000000000400dc0 <memcpy@plt>:
  400dc0:	ff 25 ea 42 20 00    	jmpq   *0x2042ea(%rip)        # 6050b0 <_GLOBAL_OFFSET_TABLE_+0xb0>
  400dc6:	68 13 00 00 00       	pushq  $0x13
  400dcb:	e9 b0 fe ff ff       	jmpq   400c80 <_init+0x20>

0000000000400dd0 <time@plt>:
  400dd0:	ff 25 e2 42 20 00    	jmpq   *0x2042e2(%rip)        # 6050b8 <_GLOBAL_OFFSET_TABLE_+0xb8>
  400dd6:	68 14 00 00 00       	pushq  $0x14
  400ddb:	e9 a0 fe ff ff       	jmpq   400c80 <_init+0x20>

0000000000400de0 <random@plt>:
  400de0:	ff 25 da 42 20 00    	jmpq   *0x2042da(%rip)        # 6050c0 <_GLOBAL_OFFSET_TABLE_+0xc0>
  400de6:	68 15 00 00 00       	pushq  $0x15
  400deb:	e9 90 fe ff ff       	jmpq   400c80 <_init+0x20>

0000000000400df0 <_IO_getc@plt>:
  400df0:	ff 25 d2 42 20 00    	jmpq   *0x2042d2(%rip)        # 6050c8 <_GLOBAL_OFFSET_TABLE_+0xc8>
  400df6:	68 16 00 00 00       	pushq  $0x16
  400dfb:	e9 80 fe ff ff       	jmpq   400c80 <_init+0x20>

0000000000400e00 <__isoc99_sscanf@plt>:
  400e00:	ff 25 ca 42 20 00    	jmpq   *0x2042ca(%rip)        # 6050d0 <_GLOBAL_OFFSET_TABLE_+0xd0>
  400e06:	68 17 00 00 00       	pushq  $0x17
  400e0b:	e9 70 fe ff ff       	jmpq   400c80 <_init+0x20>

0000000000400e10 <munmap@plt>:
  400e10:	ff 25 c2 42 20 00    	jmpq   *0x2042c2(%rip)        # 6050d8 <_GLOBAL_OFFSET_TABLE_+0xd8>
  400e16:	68 18 00 00 00       	pushq  $0x18
  400e1b:	e9 60 fe ff ff       	jmpq   400c80 <_init+0x20>

0000000000400e20 <__printf_chk@plt>:
  400e20:	ff 25 ba 42 20 00    	jmpq   *0x2042ba(%rip)        # 6050e0 <_GLOBAL_OFFSET_TABLE_+0xe0>
  400e26:	68 19 00 00 00       	pushq  $0x19
  400e2b:	e9 50 fe ff ff       	jmpq   400c80 <_init+0x20>

0000000000400e30 <fopen@plt>:
  400e30:	ff 25 b2 42 20 00    	jmpq   *0x2042b2(%rip)        # 6050e8 <_GLOBAL_OFFSET_TABLE_+0xe8>
  400e36:	68 1a 00 00 00       	pushq  $0x1a
  400e3b:	e9 40 fe ff ff       	jmpq   400c80 <_init+0x20>

0000000000400e40 <getopt@plt>:
  400e40:	ff 25 aa 42 20 00    	jmpq   *0x2042aa(%rip)        # 6050f0 <_GLOBAL_OFFSET_TABLE_+0xf0>
  400e46:	68 1b 00 00 00       	pushq  $0x1b
  400e4b:	e9 30 fe ff ff       	jmpq   400c80 <_init+0x20>

0000000000400e50 <strtoul@plt>:
  400e50:	ff 25 a2 42 20 00    	jmpq   *0x2042a2(%rip)        # 6050f8 <_GLOBAL_OFFSET_TABLE_+0xf8>
  400e56:	68 1c 00 00 00       	pushq  $0x1c
  400e5b:	e9 20 fe ff ff       	jmpq   400c80 <_init+0x20>

0000000000400e60 <gethostname@plt>:
  400e60:	ff 25 9a 42 20 00    	jmpq   *0x20429a(%rip)        # 605100 <_GLOBAL_OFFSET_TABLE_+0x100>
  400e66:	68 1d 00 00 00       	pushq  $0x1d
  400e6b:	e9 10 fe ff ff       	jmpq   400c80 <_init+0x20>

0000000000400e70 <exit@plt>:
  400e70:	ff 25 92 42 20 00    	jmpq   *0x204292(%rip)        # 605108 <_GLOBAL_OFFSET_TABLE_+0x108>
  400e76:	68 1e 00 00 00       	pushq  $0x1e
  400e7b:	e9 00 fe ff ff       	jmpq   400c80 <_init+0x20>

0000000000400e80 <connect@plt>:
  400e80:	ff 25 8a 42 20 00    	jmpq   *0x20428a(%rip)        # 605110 <_GLOBAL_OFFSET_TABLE_+0x110>
  400e86:	68 1f 00 00 00       	pushq  $0x1f
  400e8b:	e9 f0 fd ff ff       	jmpq   400c80 <_init+0x20>

0000000000400e90 <__fprintf_chk@plt>:
  400e90:	ff 25 82 42 20 00    	jmpq   *0x204282(%rip)        # 605118 <_GLOBAL_OFFSET_TABLE_+0x118>
  400e96:	68 20 00 00 00       	pushq  $0x20
  400e9b:	e9 e0 fd ff ff       	jmpq   400c80 <_init+0x20>

0000000000400ea0 <__sprintf_chk@plt>:
  400ea0:	ff 25 7a 42 20 00    	jmpq   *0x20427a(%rip)        # 605120 <_GLOBAL_OFFSET_TABLE_+0x120>
  400ea6:	68 21 00 00 00       	pushq  $0x21
  400eab:	e9 d0 fd ff ff       	jmpq   400c80 <_init+0x20>

0000000000400eb0 <socket@plt>:
  400eb0:	ff 25 72 42 20 00    	jmpq   *0x204272(%rip)        # 605128 <_GLOBAL_OFFSET_TABLE_+0x128>
  400eb6:	68 22 00 00 00       	pushq  $0x22
  400ebb:	e9 c0 fd ff ff       	jmpq   400c80 <_init+0x20>

Disassembly of section .text:

0000000000400ec0 <_start>:
  400ec0:	31 ed                	xor    %ebp,%ebp
  400ec2:	49 89 d1             	mov    %rdx,%r9
  400ec5:	5e                   	pop    %rsi
  400ec6:	48 89 e2             	mov    %rsp,%rdx
  400ec9:	48 83 e4 f0          	and    $0xfffffffffffffff0,%rsp
  400ecd:	50                   	push   %rax
  400ece:	54                   	push   %rsp
  400ecf:	49 c7 c0 e0 2f 40 00 	mov    $0x402fe0,%r8
  400ed6:	48 c7 c1 70 2f 40 00 	mov    $0x402f70,%rcx
  400edd:	48 c7 c7 bf 11 40 00 	mov    $0x4011bf,%rdi
  400ee4:	e8 77 fe ff ff       	callq  400d60 <__libc_start_main@plt>
  400ee9:	f4                   	hlt    
  400eea:	66 0f 1f 44 00 00    	nopw   0x0(%rax,%rax,1)

0000000000400ef0 <deregister_tm_clones>:
  400ef0:	b8 b7 54 60 00       	mov    $0x6054b7,%eax
  400ef5:	55                   	push   %rbp
  400ef6:	48 2d b0 54 60 00    	sub    $0x6054b0,%rax
  400efc:	48 83 f8 0e          	cmp    $0xe,%rax
  400f00:	48 89 e5             	mov    %rsp,%rbp
  400f03:	77 02                	ja     400f07 <deregister_tm_clones+0x17>
  400f05:	5d                   	pop    %rbp
  400f06:	c3                   	retq   
  400f07:	b8 00 00 00 00       	mov    $0x0,%eax
  400f0c:	48 85 c0             	test   %rax,%rax
  400f0f:	74 f4                	je     400f05 <deregister_tm_clones+0x15>
  400f11:	5d                   	pop    %rbp
  400f12:	bf b0 54 60 00       	mov    $0x6054b0,%edi
  400f17:	ff e0                	jmpq   *%rax
  400f19:	0f 1f 80 00 00 00 00 	nopl   0x0(%rax)

0000000000400f20 <register_tm_clones>:
  400f20:	b8 b0 54 60 00       	mov    $0x6054b0,%eax
  400f25:	55                   	push   %rbp
  400f26:	48 2d b0 54 60 00    	sub    $0x6054b0,%rax
  400f2c:	48 c1 f8 03          	sar    $0x3,%rax
  400f30:	48 89 e5             	mov    %rsp,%rbp
  400f33:	48 89 c2             	mov    %rax,%rdx
  400f36:	48 c1 ea 3f          	shr    $0x3f,%rdx
  400f3a:	48 01 d0             	add    %rdx,%rax
  400f3d:	48 d1 f8             	sar    %rax
  400f40:	75 02                	jne    400f44 <register_tm_clones+0x24>
  400f42:	5d                   	pop    %rbp
  400f43:	c3                   	retq   
  400f44:	ba 00 00 00 00       	mov    $0x0,%edx
  400f49:	48 85 d2             	test   %rdx,%rdx
  400f4c:	74 f4                	je     400f42 <register_tm_clones+0x22>
  400f4e:	5d                   	pop    %rbp
  400f4f:	48 89 c6             	mov    %rax,%rsi
  400f52:	bf b0 54 60 00       	mov    $0x6054b0,%edi
  400f57:	ff e2                	jmpq   *%rdx
  400f59:	0f 1f 80 00 00 00 00 	nopl   0x0(%rax)

0000000000400f60 <__do_global_dtors_aux>:
  400f60:	80 3d 89 45 20 00 00 	cmpb   $0x0,0x204589(%rip)        # 6054f0 <completed.6982>
  400f67:	75 11                	jne    400f7a <__do_global_dtors_aux+0x1a>
  400f69:	55                   	push   %rbp
  400f6a:	48 89 e5             	mov    %rsp,%rbp
  400f6d:	e8 7e ff ff ff       	callq  400ef0 <deregister_tm_clones>
  400f72:	5d                   	pop    %rbp
  400f73:	c6 05 76 45 20 00 01 	movb   $0x1,0x204576(%rip)        # 6054f0 <completed.6982>
  400f7a:	f3 c3                	repz retq 
  400f7c:	0f 1f 40 00          	nopl   0x0(%rax)

0000000000400f80 <frame_dummy>:
  400f80:	48 83 3d 98 3e 20 00 	cmpq   $0x0,0x203e98(%rip)        # 604e20 <__JCR_END__>
  400f87:	00 
  400f88:	74 1e                	je     400fa8 <frame_dummy+0x28>
  400f8a:	b8 00 00 00 00       	mov    $0x0,%eax
  400f8f:	48 85 c0             	test   %rax,%rax
  400f92:	74 14                	je     400fa8 <frame_dummy+0x28>
  400f94:	55                   	push   %rbp
  400f95:	bf 20 4e 60 00       	mov    $0x604e20,%edi
  400f9a:	48 89 e5             	mov    %rsp,%rbp
  400f9d:	ff d0                	callq  *%rax
  400f9f:	5d                   	pop    %rbp
  400fa0:	e9 7b ff ff ff       	jmpq   400f20 <register_tm_clones>
  400fa5:	0f 1f 00             	nopl   (%rax)
  400fa8:	e9 73 ff ff ff       	jmpq   400f20 <register_tm_clones>
  400fad:	0f 1f 00             	nopl   (%rax)

0000000000400fb0 <usage>:
  400fb0:	48 83 ec 08          	sub    $0x8,%rsp
  400fb4:	48 89 fa             	mov    %rdi,%rdx
  400fb7:	83 3d 6a 45 20 00 00 	cmpl   $0x0,0x20456a(%rip)        # 605528 <is_checker>
  400fbe:	74 3e                	je     400ffe <usage+0x4e>
  400fc0:	be f8 2f 40 00       	mov    $0x402ff8,%esi
  400fc5:	bf 01 00 00 00       	mov    $0x1,%edi
  400fca:	b8 00 00 00 00       	mov    $0x0,%eax
  400fcf:	e8 4c fe ff ff       	callq  400e20 <__printf_chk@plt>
  400fd4:	bf 30 30 40 00       	mov    $0x403030,%edi
  400fd9:	e8 02 fd ff ff       	callq  400ce0 <puts@plt>
  400fde:	bf a8 31 40 00       	mov    $0x4031a8,%edi
  400fe3:	e8 f8 fc ff ff       	callq  400ce0 <puts@plt>
  400fe8:	bf 58 30 40 00       	mov    $0x403058,%edi
  400fed:	e8 ee fc ff ff       	callq  400ce0 <puts@plt>
  400ff2:	bf c2 31 40 00       	mov    $0x4031c2,%edi
  400ff7:	e8 e4 fc ff ff       	callq  400ce0 <puts@plt>
  400ffc:	eb 32                	jmp    401030 <usage+0x80>
  400ffe:	be de 31 40 00       	mov    $0x4031de,%esi
  401003:	bf 01 00 00 00       	mov    $0x1,%edi
  401008:	b8 00 00 00 00       	mov    $0x0,%eax
  40100d:	e8 0e fe ff ff       	callq  400e20 <__printf_chk@plt>
  401012:	bf 80 30 40 00       	mov    $0x403080,%edi
  401017:	e8 c4 fc ff ff       	callq  400ce0 <puts@plt>
  40101c:	bf a8 30 40 00       	mov    $0x4030a8,%edi
  401021:	e8 ba fc ff ff       	callq  400ce0 <puts@plt>
  401026:	bf fc 31 40 00       	mov    $0x4031fc,%edi
  40102b:	e8 b0 fc ff ff       	callq  400ce0 <puts@plt>
  401030:	bf 00 00 00 00       	mov    $0x0,%edi
  401035:	e8 36 fe ff ff       	callq  400e70 <exit@plt>

000000000040103a <initialize_target>:
  40103a:	55                   	push   %rbp
  40103b:	53                   	push   %rbx
  40103c:	48 81 ec 18 21 00 00 	sub    $0x2118,%rsp
  401043:	89 f5                	mov    %esi,%ebp
  401045:	64 48 8b 04 25 28 00 	mov    %fs:0x28,%rax
  40104c:	00 00 
  40104e:	48 89 84 24 08 21 00 	mov    %rax,0x2108(%rsp)
  401055:	00 
  401056:	31 c0                	xor    %eax,%eax
  401058:	89 3d ba 44 20 00    	mov    %edi,0x2044ba(%rip)        # 605518 <check_level>
  40105e:	8b 3d 04 41 20 00    	mov    0x204104(%rip),%edi        # 605168 <target_id>
  401064:	e8 da 1e 00 00       	callq  402f43 <gencookie>
  401069:	89 05 b5 44 20 00    	mov    %eax,0x2044b5(%rip)        # 605524 <cookie>
  40106f:	89 c7                	mov    %eax,%edi
  401071:	e8 cd 1e 00 00       	callq  402f43 <gencookie>
  401076:	89 05 a4 44 20 00    	mov    %eax,0x2044a4(%rip)        # 605520 <authkey>
  40107c:	8b 05 e6 40 20 00    	mov    0x2040e6(%rip),%eax        # 605168 <target_id>
  401082:	8d 78 01             	lea    0x1(%rax),%edi
  401085:	e8 26 fc ff ff       	callq  400cb0 <srandom@plt>
  40108a:	e8 51 fd ff ff       	callq  400de0 <random@plt>
  40108f:	89 c7                	mov    %eax,%edi
  401091:	e8 03 03 00 00       	callq  401399 <scramble>
  401096:	89 c3                	mov    %eax,%ebx
  401098:	85 ed                	test   %ebp,%ebp
  40109a:	74 18                	je     4010b4 <initialize_target+0x7a>
  40109c:	bf 00 00 00 00       	mov    $0x0,%edi
  4010a1:	e8 2a fd ff ff       	callq  400dd0 <time@plt>
  4010a6:	89 c7                	mov    %eax,%edi
  4010a8:	e8 03 fc ff ff       	callq  400cb0 <srandom@plt>
  4010ad:	e8 2e fd ff ff       	callq  400de0 <random@plt>
  4010b2:	eb 05                	jmp    4010b9 <initialize_target+0x7f>
  4010b4:	b8 00 00 00 00       	mov    $0x0,%eax
  4010b9:	01 c3                	add    %eax,%ebx
  4010bb:	0f b7 db             	movzwl %bx,%ebx
  4010be:	8d 04 dd 00 01 00 00 	lea    0x100(,%rbx,8),%eax
  4010c5:	89 c0                	mov    %eax,%eax
  4010c7:	48 89 05 d2 43 20 00 	mov    %rax,0x2043d2(%rip)        # 6054a0 <buf_offset>
  4010ce:	c6 05 73 50 20 00 72 	movb   $0x72,0x205073(%rip)        # 606148 <target_prefix>
  4010d5:	83 3d cc 43 20 00 00 	cmpl   $0x0,0x2043cc(%rip)        # 6054a8 <notify>
  4010dc:	0f 84 bb 00 00 00    	je     40119d <initialize_target+0x163>
  4010e2:	83 3d 3f 44 20 00 00 	cmpl   $0x0,0x20443f(%rip)        # 605528 <is_checker>
  4010e9:	0f 85 ae 00 00 00    	jne    40119d <initialize_target+0x163>
  4010ef:	be 00 01 00 00       	mov    $0x100,%esi
  4010f4:	48 89 e7             	mov    %rsp,%rdi
  4010f7:	e8 64 fd ff ff       	callq  400e60 <gethostname@plt>
  4010fc:	85 c0                	test   %eax,%eax
  4010fe:	74 25                	je     401125 <initialize_target+0xeb>
  401100:	bf d8 30 40 00       	mov    $0x4030d8,%edi
  401105:	e8 d6 fb ff ff       	callq  400ce0 <puts@plt>
  40110a:	bf 08 00 00 00       	mov    $0x8,%edi
  40110f:	e8 5c fd ff ff       	callq  400e70 <exit@plt>
  401114:	48 89 e6             	mov    %rsp,%rsi
  401117:	e8 74 fb ff ff       	callq  400c90 <strcasecmp@plt>
  40111c:	85 c0                	test   %eax,%eax
  40111e:	74 21                	je     401141 <initialize_target+0x107>
  401120:	83 c3 01             	add    $0x1,%ebx
  401123:	eb 05                	jmp    40112a <initialize_target+0xf0>
  401125:	bb 00 00 00 00       	mov    $0x0,%ebx
  40112a:	48 63 c3             	movslq %ebx,%rax
  40112d:	48 8b 3c c5 80 51 60 	mov    0x605180(,%rax,8),%rdi
  401134:	00 
  401135:	48 85 ff             	test   %rdi,%rdi
  401138:	75 da                	jne    401114 <initialize_target+0xda>
  40113a:	b8 00 00 00 00       	mov    $0x0,%eax
  40113f:	eb 05                	jmp    401146 <initialize_target+0x10c>
  401141:	b8 01 00 00 00       	mov    $0x1,%eax
  401146:	85 c0                	test   %eax,%eax
  401148:	75 1c                	jne    401166 <initialize_target+0x12c>
  40114a:	48 89 e2             	mov    %rsp,%rdx
  40114d:	be 10 31 40 00       	mov    $0x403110,%esi
  401152:	bf 01 00 00 00       	mov    $0x1,%edi
  401157:	e8 c4 fc ff ff       	callq  400e20 <__printf_chk@plt>
  40115c:	bf 08 00 00 00       	mov    $0x8,%edi
  401161:	e8 0a fd ff ff       	callq  400e70 <exit@plt>
  401166:	48 8d bc 24 00 01 00 	lea    0x100(%rsp),%rdi
  40116d:	00 
  40116e:	e8 38 1b 00 00       	callq  402cab <init_driver>
  401173:	85 c0                	test   %eax,%eax
  401175:	79 26                	jns    40119d <initialize_target+0x163>
  401177:	48 8d 94 24 00 01 00 	lea    0x100(%rsp),%rdx
  40117e:	00 
  40117f:	be 50 31 40 00       	mov    $0x403150,%esi
  401184:	bf 01 00 00 00       	mov    $0x1,%edi
  401189:	b8 00 00 00 00       	mov    $0x0,%eax
  40118e:	e8 8d fc ff ff       	callq  400e20 <__printf_chk@plt>
  401193:	bf 08 00 00 00       	mov    $0x8,%edi
  401198:	e8 d3 fc ff ff       	callq  400e70 <exit@plt>
  40119d:	48 8b 84 24 08 21 00 	mov    0x2108(%rsp),%rax
  4011a4:	00 
  4011a5:	64 48 33 04 25 28 00 	xor    %fs:0x28,%rax
  4011ac:	00 00 
  4011ae:	74 05                	je     4011b5 <initialize_target+0x17b>
  4011b0:	e8 4b fb ff ff       	callq  400d00 <__stack_chk_fail@plt>
  4011b5:	48 81 c4 18 21 00 00 	add    $0x2118,%rsp
  4011bc:	5b                   	pop    %rbx
  4011bd:	5d                   	pop    %rbp
  4011be:	c3                   	retq   

00000000004011bf <main>:
  4011bf:	41 56                	push   %r14
  4011c1:	41 55                	push   %r13
  4011c3:	41 54                	push   %r12
  4011c5:	55                   	push   %rbp
  4011c6:	53                   	push   %rbx
  4011c7:	41 89 fc             	mov    %edi,%r12d
  4011ca:	48 89 f3             	mov    %rsi,%rbx
  4011cd:	be 1e 20 40 00       	mov    $0x40201e,%esi
  4011d2:	bf 0b 00 00 00       	mov    $0xb,%edi
  4011d7:	e8 94 fb ff ff       	callq  400d70 <signal@plt>
  4011dc:	be d0 1f 40 00       	mov    $0x401fd0,%esi
  4011e1:	bf 07 00 00 00       	mov    $0x7,%edi
  4011e6:	e8 85 fb ff ff       	callq  400d70 <signal@plt>
  4011eb:	be 6c 20 40 00       	mov    $0x40206c,%esi
  4011f0:	bf 04 00 00 00       	mov    $0x4,%edi
  4011f5:	e8 76 fb ff ff       	callq  400d70 <signal@plt>
  4011fa:	83 3d 27 43 20 00 00 	cmpl   $0x0,0x204327(%rip)        # 605528 <is_checker>
  401201:	74 20                	je     401223 <main+0x64>
  401203:	be ba 20 40 00       	mov    $0x4020ba,%esi
  401208:	bf 0e 00 00 00       	mov    $0xe,%edi
  40120d:	e8 5e fb ff ff       	callq  400d70 <signal@plt>
  401212:	bf 05 00 00 00       	mov    $0x5,%edi
  401217:	e8 14 fb ff ff       	callq  400d30 <alarm@plt>
  40121c:	bd 1a 32 40 00       	mov    $0x40321a,%ebp
  401221:	eb 05                	jmp    401228 <main+0x69>
  401223:	bd 15 32 40 00       	mov    $0x403215,%ebp
  401228:	48 8b 05 91 42 20 00 	mov    0x204291(%rip),%rax        # 6054c0 <stdin@@GLIBC_2.2.5>
  40122f:	48 89 05 da 42 20 00 	mov    %rax,0x2042da(%rip)        # 605510 <infile>
  401236:	41 bd 00 00 00 00    	mov    $0x0,%r13d
  40123c:	41 be 00 00 00 00    	mov    $0x0,%r14d
  401242:	e9 c6 00 00 00       	jmpq   40130d <main+0x14e>
  401247:	83 e8 61             	sub    $0x61,%eax
  40124a:	3c 10                	cmp    $0x10,%al
  40124c:	0f 87 9c 00 00 00    	ja     4012ee <main+0x12f>
  401252:	0f b6 c0             	movzbl %al,%eax
  401255:	ff 24 c5 60 32 40 00 	jmpq   *0x403260(,%rax,8)
  40125c:	48 8b 3b             	mov    (%rbx),%rdi
  40125f:	e8 4c fd ff ff       	callq  400fb0 <usage>
  401264:	be 8d 35 40 00       	mov    $0x40358d,%esi
  401269:	48 8b 3d 70 42 20 00 	mov    0x204270(%rip),%rdi        # 6054e0 <optarg@@GLIBC_2.2.5>
  401270:	e8 bb fb ff ff       	callq  400e30 <fopen@plt>
  401275:	48 89 05 94 42 20 00 	mov    %rax,0x204294(%rip)        # 605510 <infile>
  40127c:	48 85 c0             	test   %rax,%rax
  40127f:	0f 85 88 00 00 00    	jne    40130d <main+0x14e>
  401285:	48 8b 0d 54 42 20 00 	mov    0x204254(%rip),%rcx        # 6054e0 <optarg@@GLIBC_2.2.5>
  40128c:	ba 22 32 40 00       	mov    $0x403222,%edx
  401291:	be 01 00 00 00       	mov    $0x1,%esi
  401296:	48 8b 3d 4b 42 20 00 	mov    0x20424b(%rip),%rdi        # 6054e8 <stderr@@GLIBC_2.2.5>
  40129d:	e8 ee fb ff ff       	callq  400e90 <__fprintf_chk@plt>
  4012a2:	b8 01 00 00 00       	mov    $0x1,%eax
  4012a7:	e9 e4 00 00 00       	jmpq   401390 <main+0x1d1>
  4012ac:	ba 10 00 00 00       	mov    $0x10,%edx
  4012b1:	be 00 00 00 00       	mov    $0x0,%esi
  4012b6:	48 8b 3d 23 42 20 00 	mov    0x204223(%rip),%rdi        # 6054e0 <optarg@@GLIBC_2.2.5>
  4012bd:	e8 8e fb ff ff       	callq  400e50 <strtoul@plt>
  4012c2:	41 89 c6             	mov    %eax,%r14d
  4012c5:	eb 46                	jmp    40130d <main+0x14e>
  4012c7:	ba 0a 00 00 00       	mov    $0xa,%edx
  4012cc:	be 00 00 00 00       	mov    $0x0,%esi
  4012d1:	48 8b 3d 08 42 20 00 	mov    0x204208(%rip),%rdi        # 6054e0 <optarg@@GLIBC_2.2.5>
  4012d8:	e8 d3 fa ff ff       	callq  400db0 <strtol@plt>
  4012dd:	41 89 c5             	mov    %eax,%r13d
  4012e0:	eb 2b                	jmp    40130d <main+0x14e>
  4012e2:	c7 05 bc 41 20 00 00 	movl   $0x0,0x2041bc(%rip)        # 6054a8 <notify>
  4012e9:	00 00 00 
  4012ec:	eb 1f                	jmp    40130d <main+0x14e>
  4012ee:	0f be d2             	movsbl %dl,%edx
  4012f1:	be 3f 32 40 00       	mov    $0x40323f,%esi
  4012f6:	bf 01 00 00 00       	mov    $0x1,%edi
  4012fb:	b8 00 00 00 00       	mov    $0x0,%eax
  401300:	e8 1b fb ff ff       	callq  400e20 <__printf_chk@plt>
  401305:	48 8b 3b             	mov    (%rbx),%rdi
  401308:	e8 a3 fc ff ff       	callq  400fb0 <usage>
  40130d:	48 89 ea             	mov    %rbp,%rdx
  401310:	48 89 de             	mov    %rbx,%rsi
  401313:	44 89 e7             	mov    %r12d,%edi
  401316:	e8 25 fb ff ff       	callq  400e40 <getopt@plt>
  40131b:	89 c2                	mov    %eax,%edx
  40131d:	3c ff                	cmp    $0xff,%al
  40131f:	0f 85 22 ff ff ff    	jne    401247 <main+0x88>
  401325:	be 01 00 00 00       	mov    $0x1,%esi
  40132a:	44 89 ef             	mov    %r13d,%edi
  40132d:	e8 08 fd ff ff       	callq  40103a <initialize_target>
  401332:	83 3d ef 41 20 00 00 	cmpl   $0x0,0x2041ef(%rip)        # 605528 <is_checker>
  401339:	74 2a                	je     401365 <main+0x1a6>
  40133b:	44 3b 35 de 41 20 00 	cmp    0x2041de(%rip),%r14d        # 605520 <authkey>
  401342:	74 21                	je     401365 <main+0x1a6>
  401344:	44 89 f2             	mov    %r14d,%edx
  401347:	be 78 31 40 00       	mov    $0x403178,%esi
  40134c:	bf 01 00 00 00       	mov    $0x1,%edi
  401351:	b8 00 00 00 00       	mov    $0x0,%eax
  401356:	e8 c5 fa ff ff       	callq  400e20 <__printf_chk@plt>
  40135b:	b8 00 00 00 00       	mov    $0x0,%eax
  401360:	e8 f6 08 00 00       	callq  401c5b <check_fail>
  401365:	8b 15 b9 41 20 00    	mov    0x2041b9(%rip),%edx        # 605524 <cookie>
  40136b:	be 52 32 40 00       	mov    $0x403252,%esi
  401370:	bf 01 00 00 00       	mov    $0x1,%edi
  401375:	b8 00 00 00 00       	mov    $0x0,%eax
  40137a:	e8 a1 fa ff ff       	callq  400e20 <__printf_chk@plt>
  40137f:	48 8b 3d 1a 41 20 00 	mov    0x20411a(%rip),%rdi        # 6054a0 <buf_offset>
  401386:	e8 82 0d 00 00       	callq  40210d <launch>
  40138b:	b8 00 00 00 00       	mov    $0x0,%eax
  401390:	5b                   	pop    %rbx
  401391:	5d                   	pop    %rbp
  401392:	41 5c                	pop    %r12
  401394:	41 5d                	pop    %r13
  401396:	41 5e                	pop    %r14
  401398:	c3                   	retq   

0000000000401399 <scramble>:
  401399:	b8 00 00 00 00       	mov    $0x0,%eax
  40139e:	eb 11                	jmp    4013b1 <scramble+0x18>
  4013a0:	69 c8 b9 bf 00 00    	imul   $0xbfb9,%eax,%ecx
  4013a6:	01 f9                	add    %edi,%ecx
  4013a8:	89 c2                	mov    %eax,%edx
  4013aa:	89 4c 94 c8          	mov    %ecx,-0x38(%rsp,%rdx,4)
  4013ae:	83 c0 01             	add    $0x1,%eax
  4013b1:	83 f8 09             	cmp    $0x9,%eax
  4013b4:	76 ea                	jbe    4013a0 <scramble+0x7>
  4013b6:	8b 44 24 dc          	mov    -0x24(%rsp),%eax
  4013ba:	69 c0 18 76 00 00    	imul   $0x7618,%eax,%eax
  4013c0:	89 44 24 dc          	mov    %eax,-0x24(%rsp)
  4013c4:	8b 44 24 dc          	mov    -0x24(%rsp),%eax
  4013c8:	69 c0 ac 7a 00 00    	imul   $0x7aac,%eax,%eax
  4013ce:	89 44 24 dc          	mov    %eax,-0x24(%rsp)
  4013d2:	8b 44 24 d4          	mov    -0x2c(%rsp),%eax
  4013d6:	69 c0 f6 7d 00 00    	imul   $0x7df6,%eax,%eax
  4013dc:	89 44 24 d4          	mov    %eax,-0x2c(%rsp)
  4013e0:	8b 44 24 e8          	mov    -0x18(%rsp),%eax
  4013e4:	69 c0 8a 5f 00 00    	imul   $0x5f8a,%eax,%eax
  4013ea:	89 44 24 e8          	mov    %eax,-0x18(%rsp)
  4013ee:	8b 44 24 d4          	mov    -0x2c(%rsp),%eax
  4013f2:	69 c0 8f fc 00 00    	imul   $0xfc8f,%eax,%eax
  4013f8:	89 44 24 d4          	mov    %eax,-0x2c(%rsp)
  4013fc:	8b 44 24 d4          	mov    -0x2c(%rsp),%eax
  401400:	69 c0 e5 e4 00 00    	imul   $0xe4e5,%eax,%eax
  401406:	89 44 24 d4          	mov    %eax,-0x2c(%rsp)
  40140a:	8b 44 24 e0          	mov    -0x20(%rsp),%eax
  40140e:	69 c0 02 5b 00 00    	imul   $0x5b02,%eax,%eax
  401414:	89 44 24 e0          	mov    %eax,-0x20(%rsp)
  401418:	8b 44 24 d0          	mov    -0x30(%rsp),%eax
  40141c:	69 c0 00 2e 00 00    	imul   $0x2e00,%eax,%eax
  401422:	89 44 24 d0          	mov    %eax,-0x30(%rsp)
  401426:	8b 44 24 d8          	mov    -0x28(%rsp),%eax
  40142a:	69 c0 77 1a 00 00    	imul   $0x1a77,%eax,%eax
  401430:	89 44 24 d8          	mov    %eax,-0x28(%rsp)
  401434:	8b 44 24 c8          	mov    -0x38(%rsp),%eax
  401438:	69 c0 bf f3 00 00    	imul   $0xf3bf,%eax,%eax
  40143e:	89 44 24 c8          	mov    %eax,-0x38(%rsp)
  401442:	8b 44 24 d0          	mov    -0x30(%rsp),%eax
  401446:	69 c0 ec 1d 00 00    	imul   $0x1dec,%eax,%eax
  40144c:	89 44 24 d0          	mov    %eax,-0x30(%rsp)
  401450:	8b 44 24 cc          	mov    -0x34(%rsp),%eax
  401454:	69 c0 2d a3 00 00    	imul   $0xa32d,%eax,%eax
  40145a:	89 44 24 cc          	mov    %eax,-0x34(%rsp)
  40145e:	8b 44 24 e8          	mov    -0x18(%rsp),%eax
  401462:	69 c0 dc 18 00 00    	imul   $0x18dc,%eax,%eax
  401468:	89 44 24 e8          	mov    %eax,-0x18(%rsp)
  40146c:	8b 44 24 dc          	mov    -0x24(%rsp),%eax
  401470:	69 c0 f5 14 00 00    	imul   $0x14f5,%eax,%eax
  401476:	89 44 24 dc          	mov    %eax,-0x24(%rsp)
  40147a:	8b 44 24 c8          	mov    -0x38(%rsp),%eax
  40147e:	69 c0 57 aa 00 00    	imul   $0xaa57,%eax,%eax
  401484:	89 44 24 c8          	mov    %eax,-0x38(%rsp)
  401488:	8b 44 24 ec          	mov    -0x14(%rsp),%eax
  40148c:	69 c0 d8 89 00 00    	imul   $0x89d8,%eax,%eax
  401492:	89 44 24 ec          	mov    %eax,-0x14(%rsp)
  401496:	8b 44 24 cc          	mov    -0x34(%rsp),%eax
  40149a:	69 c0 e4 f1 00 00    	imul   $0xf1e4,%eax,%eax
  4014a0:	89 44 24 cc          	mov    %eax,-0x34(%rsp)
  4014a4:	8b 44 24 d8          	mov    -0x28(%rsp),%eax
  4014a8:	69 c0 e4 29 00 00    	imul   $0x29e4,%eax,%eax
  4014ae:	89 44 24 d8          	mov    %eax,-0x28(%rsp)
  4014b2:	8b 44 24 ec          	mov    -0x14(%rsp),%eax
  4014b6:	69 c0 88 d0 00 00    	imul   $0xd088,%eax,%eax
  4014bc:	89 44 24 ec          	mov    %eax,-0x14(%rsp)
  4014c0:	8b 44 24 d0          	mov    -0x30(%rsp),%eax
  4014c4:	69 c0 2d 3f 00 00    	imul   $0x3f2d,%eax,%eax
  4014ca:	89 44 24 d0          	mov    %eax,-0x30(%rsp)
  4014ce:	8b 44 24 d0          	mov    -0x30(%rsp),%eax
  4014d2:	69 c0 1a 0c 00 00    	imul   $0xc1a,%eax,%eax
  4014d8:	89 44 24 d0          	mov    %eax,-0x30(%rsp)
  4014dc:	8b 44 24 e0          	mov    -0x20(%rsp),%eax
  4014e0:	69 c0 8d b7 00 00    	imul   $0xb78d,%eax,%eax
  4014e6:	89 44 24 e0          	mov    %eax,-0x20(%rsp)
  4014ea:	8b 44 24 e8          	mov    -0x18(%rsp),%eax
  4014ee:	69 c0 eb 23 00 00    	imul   $0x23eb,%eax,%eax
  4014f4:	89 44 24 e8          	mov    %eax,-0x18(%rsp)
  4014f8:	8b 44 24 d0          	mov    -0x30(%rsp),%eax
  4014fc:	69 c0 a9 05 00 00    	imul   $0x5a9,%eax,%eax
  401502:	89 44 24 d0          	mov    %eax,-0x30(%rsp)
  401506:	8b 44 24 d0          	mov    -0x30(%rsp),%eax
  40150a:	69 c0 c6 94 00 00    	imul   $0x94c6,%eax,%eax
  401510:	89 44 24 d0          	mov    %eax,-0x30(%rsp)
  401514:	8b 44 24 e4          	mov    -0x1c(%rsp),%eax
  401518:	69 c0 00 43 00 00    	imul   $0x4300,%eax,%eax
  40151e:	89 44 24 e4          	mov    %eax,-0x1c(%rsp)
  401522:	8b 44 24 d4          	mov    -0x2c(%rsp),%eax
  401526:	69 c0 46 9e 00 00    	imul   $0x9e46,%eax,%eax
  40152c:	89 44 24 d4          	mov    %eax,-0x2c(%rsp)
  401530:	8b 44 24 e0          	mov    -0x20(%rsp),%eax
  401534:	69 c0 06 92 00 00    	imul   $0x9206,%eax,%eax
  40153a:	89 44 24 e0          	mov    %eax,-0x20(%rsp)
  40153e:	8b 44 24 e8          	mov    -0x18(%rsp),%eax
  401542:	69 c0 61 0b 00 00    	imul   $0xb61,%eax,%eax
  401548:	89 44 24 e8          	mov    %eax,-0x18(%rsp)
  40154c:	8b 44 24 e8          	mov    -0x18(%rsp),%eax
  401550:	69 c0 41 81 00 00    	imul   $0x8141,%eax,%eax
  401556:	89 44 24 e8          	mov    %eax,-0x18(%rsp)
  40155a:	8b 44 24 e0          	mov    -0x20(%rsp),%eax
  40155e:	69 c0 ae ca 00 00    	imul   $0xcaae,%eax,%eax
  401564:	89 44 24 e0          	mov    %eax,-0x20(%rsp)
  401568:	8b 44 24 d8          	mov    -0x28(%rsp),%eax
  40156c:	69 c0 27 d6 00 00    	imul   $0xd627,%eax,%eax
  401572:	89 44 24 d8          	mov    %eax,-0x28(%rsp)
  401576:	8b 44 24 e0          	mov    -0x20(%rsp),%eax
  40157a:	69 c0 9f 0f 00 00    	imul   $0xf9f,%eax,%eax
  401580:	89 44 24 e0          	mov    %eax,-0x20(%rsp)
  401584:	8b 44 24 dc          	mov    -0x24(%rsp),%eax
  401588:	69 c0 6d 2c 00 00    	imul   $0x2c6d,%eax,%eax
  40158e:	89 44 24 dc          	mov    %eax,-0x24(%rsp)
  401592:	8b 44 24 e0          	mov    -0x20(%rsp),%eax
  401596:	69 c0 7b 89 00 00    	imul   $0x897b,%eax,%eax
  40159c:	89 44 24 e0          	mov    %eax,-0x20(%rsp)
  4015a0:	8b 44 24 cc          	mov    -0x34(%rsp),%eax
  4015a4:	69 c0 3f ad 00 00    	imul   $0xad3f,%eax,%eax
  4015aa:	89 44 24 cc          	mov    %eax,-0x34(%rsp)
  4015ae:	8b 44 24 e4          	mov    -0x1c(%rsp),%eax
  4015b2:	69 c0 ac 8f 00 00    	imul   $0x8fac,%eax,%eax
  4015b8:	89 44 24 e4          	mov    %eax,-0x1c(%rsp)
  4015bc:	8b 44 24 e4          	mov    -0x1c(%rsp),%eax
  4015c0:	69 c0 b1 fc 00 00    	imul   $0xfcb1,%eax,%eax
  4015c6:	89 44 24 e4          	mov    %eax,-0x1c(%rsp)
  4015ca:	8b 44 24 c8          	mov    -0x38(%rsp),%eax
  4015ce:	69 c0 5b 4a 00 00    	imul   $0x4a5b,%eax,%eax
  4015d4:	89 44 24 c8          	mov    %eax,-0x38(%rsp)
  4015d8:	8b 44 24 d4          	mov    -0x2c(%rsp),%eax
  4015dc:	69 c0 fa f1 00 00    	imul   $0xf1fa,%eax,%eax
  4015e2:	89 44 24 d4          	mov    %eax,-0x2c(%rsp)
  4015e6:	8b 44 24 e8          	mov    -0x18(%rsp),%eax
  4015ea:	69 c0 c2 fb 00 00    	imul   $0xfbc2,%eax,%eax
  4015f0:	89 44 24 e8          	mov    %eax,-0x18(%rsp)
  4015f4:	8b 44 24 e0          	mov    -0x20(%rsp),%eax
  4015f8:	69 c0 d4 91 00 00    	imul   $0x91d4,%eax,%eax
  4015fe:	89 44 24 e0          	mov    %eax,-0x20(%rsp)
  401602:	8b 44 24 ec          	mov    -0x14(%rsp),%eax
  401606:	69 c0 28 1b 00 00    	imul   $0x1b28,%eax,%eax
  40160c:	89 44 24 ec          	mov    %eax,-0x14(%rsp)
  401610:	8b 44 24 e4          	mov    -0x1c(%rsp),%eax
  401614:	69 c0 2b 51 00 00    	imul   $0x512b,%eax,%eax
  40161a:	89 44 24 e4          	mov    %eax,-0x1c(%rsp)
  40161e:	8b 44 24 e8          	mov    -0x18(%rsp),%eax
  401622:	69 c0 d7 ca 00 00    	imul   $0xcad7,%eax,%eax
  401628:	89 44 24 e8          	mov    %eax,-0x18(%rsp)
  40162c:	8b 44 24 e4          	mov    -0x1c(%rsp),%eax
  401630:	69 c0 42 dc 00 00    	imul   $0xdc42,%eax,%eax
  401636:	89 44 24 e4          	mov    %eax,-0x1c(%rsp)
  40163a:	8b 44 24 dc          	mov    -0x24(%rsp),%eax
  40163e:	69 c0 86 dd 00 00    	imul   $0xdd86,%eax,%eax
  401644:	89 44 24 dc          	mov    %eax,-0x24(%rsp)
  401648:	8b 44 24 dc          	mov    -0x24(%rsp),%eax
  40164c:	69 c0 18 52 00 00    	imul   $0x5218,%eax,%eax
  401652:	89 44 24 dc          	mov    %eax,-0x24(%rsp)
  401656:	8b 44 24 dc          	mov    -0x24(%rsp),%eax
  40165a:	69 c0 75 b2 00 00    	imul   $0xb275,%eax,%eax
  401660:	89 44 24 dc          	mov    %eax,-0x24(%rsp)
  401664:	8b 44 24 e8          	mov    -0x18(%rsp),%eax
  401668:	69 c0 4d cd 00 00    	imul   $0xcd4d,%eax,%eax
  40166e:	89 44 24 e8          	mov    %eax,-0x18(%rsp)
  401672:	8b 44 24 d0          	mov    -0x30(%rsp),%eax
  401676:	69 c0 1f ea 00 00    	imul   $0xea1f,%eax,%eax
  40167c:	89 44 24 d0          	mov    %eax,-0x30(%rsp)
  401680:	8b 44 24 ec          	mov    -0x14(%rsp),%eax
  401684:	69 c0 85 d1 00 00    	imul   $0xd185,%eax,%eax
  40168a:	89 44 24 ec          	mov    %eax,-0x14(%rsp)
  40168e:	8b 44 24 cc          	mov    -0x34(%rsp),%eax
  401692:	69 c0 59 df 00 00    	imul   $0xdf59,%eax,%eax
  401698:	89 44 24 cc          	mov    %eax,-0x34(%rsp)
  40169c:	8b 44 24 e8          	mov    -0x18(%rsp),%eax
  4016a0:	69 c0 63 2d 00 00    	imul   $0x2d63,%eax,%eax
  4016a6:	89 44 24 e8          	mov    %eax,-0x18(%rsp)
  4016aa:	8b 44 24 cc          	mov    -0x34(%rsp),%eax
  4016ae:	69 c0 91 d0 00 00    	imul   $0xd091,%eax,%eax
  4016b4:	89 44 24 cc          	mov    %eax,-0x34(%rsp)
  4016b8:	8b 44 24 e0          	mov    -0x20(%rsp),%eax
  4016bc:	69 c0 d6 08 00 00    	imul   $0x8d6,%eax,%eax
  4016c2:	89 44 24 e0          	mov    %eax,-0x20(%rsp)
  4016c6:	8b 44 24 d8          	mov    -0x28(%rsp),%eax
  4016ca:	69 c0 57 54 00 00    	imul   $0x5457,%eax,%eax
  4016d0:	89 44 24 d8          	mov    %eax,-0x28(%rsp)
  4016d4:	8b 44 24 d4          	mov    -0x2c(%rsp),%eax
  4016d8:	69 c0 5c 66 00 00    	imul   $0x665c,%eax,%eax
  4016de:	89 44 24 d4          	mov    %eax,-0x2c(%rsp)
  4016e2:	8b 44 24 ec          	mov    -0x14(%rsp),%eax
  4016e6:	69 c0 85 be 00 00    	imul   $0xbe85,%eax,%eax
  4016ec:	89 44 24 ec          	mov    %eax,-0x14(%rsp)
  4016f0:	8b 44 24 d0          	mov    -0x30(%rsp),%eax
  4016f4:	69 c0 09 96 00 00    	imul   $0x9609,%eax,%eax
  4016fa:	89 44 24 d0          	mov    %eax,-0x30(%rsp)
  4016fe:	8b 44 24 ec          	mov    -0x14(%rsp),%eax
  401702:	69 c0 f4 89 00 00    	imul   $0x89f4,%eax,%eax
  401708:	89 44 24 ec          	mov    %eax,-0x14(%rsp)
  40170c:	8b 44 24 d8          	mov    -0x28(%rsp),%eax
  401710:	69 c0 e2 1e 00 00    	imul   $0x1ee2,%eax,%eax
  401716:	89 44 24 d8          	mov    %eax,-0x28(%rsp)
  40171a:	8b 44 24 d8          	mov    -0x28(%rsp),%eax
  40171e:	69 c0 b4 24 00 00    	imul   $0x24b4,%eax,%eax
  401724:	89 44 24 d8          	mov    %eax,-0x28(%rsp)
  401728:	8b 44 24 c8          	mov    -0x38(%rsp),%eax
  40172c:	69 c0 a0 54 00 00    	imul   $0x54a0,%eax,%eax
  401732:	89 44 24 c8          	mov    %eax,-0x38(%rsp)
  401736:	8b 44 24 d4          	mov    -0x2c(%rsp),%eax
  40173a:	69 c0 7f ef 00 00    	imul   $0xef7f,%eax,%eax
  401740:	89 44 24 d4          	mov    %eax,-0x2c(%rsp)
  401744:	8b 44 24 d0          	mov    -0x30(%rsp),%eax
  401748:	69 c0 1a 13 00 00    	imul   $0x131a,%eax,%eax
  40174e:	89 44 24 d0          	mov    %eax,-0x30(%rsp)
  401752:	8b 44 24 d0          	mov    -0x30(%rsp),%eax
  401756:	69 c0 79 9c 00 00    	imul   $0x9c79,%eax,%eax
  40175c:	89 44 24 d0          	mov    %eax,-0x30(%rsp)
  401760:	8b 44 24 ec          	mov    -0x14(%rsp),%eax
  401764:	69 c0 69 53 00 00    	imul   $0x5369,%eax,%eax
  40176a:	89 44 24 ec          	mov    %eax,-0x14(%rsp)
  40176e:	8b 44 24 d8          	mov    -0x28(%rsp),%eax
  401772:	69 c0 d7 b2 00 00    	imul   $0xb2d7,%eax,%eax
  401778:	89 44 24 d8          	mov    %eax,-0x28(%rsp)
  40177c:	8b 44 24 e0          	mov    -0x20(%rsp),%eax
  401780:	69 c0 87 a5 00 00    	imul   $0xa587,%eax,%eax
  401786:	89 44 24 e0          	mov    %eax,-0x20(%rsp)
  40178a:	8b 44 24 d4          	mov    -0x2c(%rsp),%eax
  40178e:	69 c0 29 a0 00 00    	imul   $0xa029,%eax,%eax
  401794:	89 44 24 d4          	mov    %eax,-0x2c(%rsp)
  401798:	8b 44 24 e4          	mov    -0x1c(%rsp),%eax
  40179c:	69 c0 bc 4f 00 00    	imul   $0x4fbc,%eax,%eax
  4017a2:	89 44 24 e4          	mov    %eax,-0x1c(%rsp)
  4017a6:	8b 44 24 ec          	mov    -0x14(%rsp),%eax
  4017aa:	69 c0 08 49 00 00    	imul   $0x4908,%eax,%eax
  4017b0:	89 44 24 ec          	mov    %eax,-0x14(%rsp)
  4017b4:	8b 44 24 cc          	mov    -0x34(%rsp),%eax
  4017b8:	69 c0 00 64 00 00    	imul   $0x6400,%eax,%eax
  4017be:	89 44 24 cc          	mov    %eax,-0x34(%rsp)
  4017c2:	8b 44 24 dc          	mov    -0x24(%rsp),%eax
  4017c6:	69 c0 a0 6d 00 00    	imul   $0x6da0,%eax,%eax
  4017cc:	89 44 24 dc          	mov    %eax,-0x24(%rsp)
  4017d0:	8b 44 24 e0          	mov    -0x20(%rsp),%eax
  4017d4:	69 c0 ea 90 00 00    	imul   $0x90ea,%eax,%eax
  4017da:	89 44 24 e0          	mov    %eax,-0x20(%rsp)
  4017de:	8b 44 24 e0          	mov    -0x20(%rsp),%eax
  4017e2:	69 c0 54 6c 00 00    	imul   $0x6c54,%eax,%eax
  4017e8:	89 44 24 e0          	mov    %eax,-0x20(%rsp)
  4017ec:	8b 44 24 d4          	mov    -0x2c(%rsp),%eax
  4017f0:	69 c0 0f 5f 00 00    	imul   $0x5f0f,%eax,%eax
  4017f6:	89 44 24 d4          	mov    %eax,-0x2c(%rsp)
  4017fa:	8b 44 24 d4          	mov    -0x2c(%rsp),%eax
  4017fe:	69 c0 c6 20 00 00    	imul   $0x20c6,%eax,%eax
  401804:	89 44 24 d4          	mov    %eax,-0x2c(%rsp)
  401808:	8b 44 24 d4          	mov    -0x2c(%rsp),%eax
  40180c:	69 c0 33 68 00 00    	imul   $0x6833,%eax,%eax
  401812:	89 44 24 d4          	mov    %eax,-0x2c(%rsp)
  401816:	8b 44 24 dc          	mov    -0x24(%rsp),%eax
  40181a:	69 c0 9c d5 00 00    	imul   $0xd59c,%eax,%eax
  401820:	89 44 24 dc          	mov    %eax,-0x24(%rsp)
  401824:	8b 44 24 dc          	mov    -0x24(%rsp),%eax
  401828:	69 c0 e3 e9 00 00    	imul   $0xe9e3,%eax,%eax
  40182e:	89 44 24 dc          	mov    %eax,-0x24(%rsp)
  401832:	8b 44 24 d0          	mov    -0x30(%rsp),%eax
  401836:	69 c0 ed 5f 00 00    	imul   $0x5fed,%eax,%eax
  40183c:	89 44 24 d0          	mov    %eax,-0x30(%rsp)
  401840:	8b 44 24 e0          	mov    -0x20(%rsp),%eax
  401844:	69 c0 e8 ed 00 00    	imul   $0xede8,%eax,%eax
  40184a:	89 44 24 e0          	mov    %eax,-0x20(%rsp)
  40184e:	8b 44 24 d8          	mov    -0x28(%rsp),%eax
  401852:	69 c0 19 be 00 00    	imul   $0xbe19,%eax,%eax
  401858:	89 44 24 d8          	mov    %eax,-0x28(%rsp)
  40185c:	8b 44 24 d8          	mov    -0x28(%rsp),%eax
  401860:	69 c0 2d 96 00 00    	imul   $0x962d,%eax,%eax
  401866:	89 44 24 d8          	mov    %eax,-0x28(%rsp)
  40186a:	8b 44 24 ec          	mov    -0x14(%rsp),%eax
  40186e:	69 c0 cd 41 00 00    	imul   $0x41cd,%eax,%eax
  401874:	89 44 24 ec          	mov    %eax,-0x14(%rsp)
  401878:	8b 44 24 e4          	mov    -0x1c(%rsp),%eax
  40187c:	69 c0 c3 52 00 00    	imul   $0x52c3,%eax,%eax
  401882:	89 44 24 e4          	mov    %eax,-0x1c(%rsp)
  401886:	8b 44 24 e0          	mov    -0x20(%rsp),%eax
  40188a:	69 c0 02 9c 00 00    	imul   $0x9c02,%eax,%eax
  401890:	89 44 24 e0          	mov    %eax,-0x20(%rsp)
  401894:	8b 44 24 e4          	mov    -0x1c(%rsp),%eax
  401898:	69 c0 63 92 00 00    	imul   $0x9263,%eax,%eax
  40189e:	89 44 24 e4          	mov    %eax,-0x1c(%rsp)
  4018a2:	8b 44 24 ec          	mov    -0x14(%rsp),%eax
  4018a6:	69 c0 cd b0 00 00    	imul   $0xb0cd,%eax,%eax
  4018ac:	89 44 24 ec          	mov    %eax,-0x14(%rsp)
  4018b0:	8b 44 24 c8          	mov    -0x38(%rsp),%eax
  4018b4:	69 c0 37 01 00 00    	imul   $0x137,%eax,%eax
  4018ba:	89 44 24 c8          	mov    %eax,-0x38(%rsp)
  4018be:	ba 00 00 00 00       	mov    $0x0,%edx
  4018c3:	b8 00 00 00 00       	mov    $0x0,%eax
  4018c8:	eb 0b                	jmp    4018d5 <scramble+0x53c>
  4018ca:	89 d1                	mov    %edx,%ecx
  4018cc:	8b 4c 8c c8          	mov    -0x38(%rsp,%rcx,4),%ecx
  4018d0:	01 c8                	add    %ecx,%eax
  4018d2:	83 c2 01             	add    $0x1,%edx
  4018d5:	83 fa 09             	cmp    $0x9,%edx
  4018d8:	76 f0                	jbe    4018ca <scramble+0x531>
  4018da:	f3 c3                	repz retq 

00000000004018dc <getbuf>:
  4018dc:	48 83 ec 38          	sub    $0x38,%rsp
  4018e0:	48 89 e7             	mov    %rsp,%rdi
  4018e3:	e8 a8 03 00 00       	callq  401c90 <Gets>
  4018e8:	b8 01 00 00 00       	mov    $0x1,%eax
  4018ed:	48 83 c4 38          	add    $0x38,%rsp
  4018f1:	c3                   	retq   

00000000004018f2 <touch1>:
  4018f2:	48 83 ec 08          	sub    $0x8,%rsp
  4018f6:	c7 05 1c 3c 20 00 01 	movl   $0x1,0x203c1c(%rip)        # 60551c <vlevel>
  4018fd:	00 00 00 
  401900:	bf e3 33 40 00       	mov    $0x4033e3,%edi
  401905:	e8 d6 f3 ff ff       	callq  400ce0 <puts@plt>
  40190a:	bf 01 00 00 00       	mov    $0x1,%edi
  40190f:	e8 d2 05 00 00       	callq  401ee6 <validate>
  401914:	bf 00 00 00 00       	mov    $0x0,%edi
  401919:	e8 52 f5 ff ff       	callq  400e70 <exit@plt>

000000000040191e <touch2>:
  40191e:	48 83 ec 08          	sub    $0x8,%rsp
  401922:	89 fa                	mov    %edi,%edx
  401924:	c7 05 ee 3b 20 00 02 	movl   $0x2,0x203bee(%rip)        # 60551c <vlevel>
  40192b:	00 00 00 
  40192e:	3b 3d f0 3b 20 00    	cmp    0x203bf0(%rip),%edi        # 605524 <cookie>
  401934:	75 20                	jne    401956 <touch2+0x38>
  401936:	be 08 34 40 00       	mov    $0x403408,%esi
  40193b:	bf 01 00 00 00       	mov    $0x1,%edi
  401940:	b8 00 00 00 00       	mov    $0x0,%eax
  401945:	e8 d6 f4 ff ff       	callq  400e20 <__printf_chk@plt>
  40194a:	bf 02 00 00 00       	mov    $0x2,%edi
  40194f:	e8 92 05 00 00       	callq  401ee6 <validate>
  401954:	eb 1e                	jmp    401974 <touch2+0x56>
  401956:	be 30 34 40 00       	mov    $0x403430,%esi
  40195b:	bf 01 00 00 00       	mov    $0x1,%edi
  401960:	b8 00 00 00 00       	mov    $0x0,%eax
  401965:	e8 b6 f4 ff ff       	callq  400e20 <__printf_chk@plt>
  40196a:	bf 02 00 00 00       	mov    $0x2,%edi
  40196f:	e8 34 06 00 00       	callq  401fa8 <fail>
  401974:	bf 00 00 00 00       	mov    $0x0,%edi
  401979:	e8 f2 f4 ff ff       	callq  400e70 <exit@plt>

000000000040197e <hexmatch>:
  40197e:	41 54                	push   %r12
  401980:	55                   	push   %rbp
  401981:	53                   	push   %rbx
  401982:	48 83 c4 80          	add    $0xffffffffffffff80,%rsp
  401986:	41 89 fc             	mov    %edi,%r12d
  401989:	48 89 f5             	mov    %rsi,%rbp
  40198c:	64 48 8b 04 25 28 00 	mov    %fs:0x28,%rax
  401993:	00 00 
  401995:	48 89 44 24 78       	mov    %rax,0x78(%rsp)
  40199a:	31 c0                	xor    %eax,%eax
  40199c:	e8 3f f4 ff ff       	callq  400de0 <random@plt>
  4019a1:	48 89 c1             	mov    %rax,%rcx
  4019a4:	48 ba 0b d7 a3 70 3d 	movabs $0xa3d70a3d70a3d70b,%rdx
  4019ab:	0a d7 a3 
  4019ae:	48 f7 ea             	imul   %rdx
  4019b1:	48 01 ca             	add    %rcx,%rdx
  4019b4:	48 c1 fa 06          	sar    $0x6,%rdx
  4019b8:	48 89 c8             	mov    %rcx,%rax
  4019bb:	48 c1 f8 3f          	sar    $0x3f,%rax
  4019bf:	48 29 c2             	sub    %rax,%rdx
  4019c2:	48 8d 04 92          	lea    (%rdx,%rdx,4),%rax
  4019c6:	48 8d 04 80          	lea    (%rax,%rax,4),%rax
  4019ca:	48 c1 e0 02          	shl    $0x2,%rax
  4019ce:	48 29 c1             	sub    %rax,%rcx
  4019d1:	48 8d 1c 0c          	lea    (%rsp,%rcx,1),%rbx
  4019d5:	45 89 e0             	mov    %r12d,%r8d
  4019d8:	b9 00 34 40 00       	mov    $0x403400,%ecx
  4019dd:	48 c7 c2 ff ff ff ff 	mov    $0xffffffffffffffff,%rdx
  4019e4:	be 01 00 00 00       	mov    $0x1,%esi
  4019e9:	48 89 df             	mov    %rbx,%rdi
  4019ec:	b8 00 00 00 00       	mov    $0x0,%eax
  4019f1:	e8 aa f4 ff ff       	callq  400ea0 <__sprintf_chk@plt>
  4019f6:	ba 09 00 00 00       	mov    $0x9,%edx
  4019fb:	48 89 de             	mov    %rbx,%rsi
  4019fe:	48 89 ef             	mov    %rbp,%rdi
  401a01:	e8 ba f2 ff ff       	callq  400cc0 <strncmp@plt>
  401a06:	85 c0                	test   %eax,%eax
  401a08:	0f 94 c0             	sete   %al
  401a0b:	0f b6 c0             	movzbl %al,%eax
  401a0e:	48 8b 74 24 78       	mov    0x78(%rsp),%rsi
  401a13:	64 48 33 34 25 28 00 	xor    %fs:0x28,%rsi
  401a1a:	00 00 
  401a1c:	74 05                	je     401a23 <hexmatch+0xa5>
  401a1e:	e8 dd f2 ff ff       	callq  400d00 <__stack_chk_fail@plt>
  401a23:	48 83 ec 80          	sub    $0xffffffffffffff80,%rsp
  401a27:	5b                   	pop    %rbx
  401a28:	5d                   	pop    %rbp
  401a29:	41 5c                	pop    %r12
  401a2b:	c3                   	retq   

0000000000401a2c <touch3>:
  401a2c:	53                   	push   %rbx
  401a2d:	48 89 fb             	mov    %rdi,%rbx
  401a30:	c7 05 e2 3a 20 00 03 	movl   $0x3,0x203ae2(%rip)        # 60551c <vlevel>
  401a37:	00 00 00 
  401a3a:	48 89 fe             	mov    %rdi,%rsi
  401a3d:	8b 3d e1 3a 20 00    	mov    0x203ae1(%rip),%edi        # 605524 <cookie>
  401a43:	e8 36 ff ff ff       	callq  40197e <hexmatch>
  401a48:	85 c0                	test   %eax,%eax
  401a4a:	74 23                	je     401a6f <touch3+0x43>
  401a4c:	48 89 da             	mov    %rbx,%rdx
  401a4f:	be 58 34 40 00       	mov    $0x403458,%esi
  401a54:	bf 01 00 00 00       	mov    $0x1,%edi
  401a59:	b8 00 00 00 00       	mov    $0x0,%eax
  401a5e:	e8 bd f3 ff ff       	callq  400e20 <__printf_chk@plt>
  401a63:	bf 03 00 00 00       	mov    $0x3,%edi
  401a68:	e8 79 04 00 00       	callq  401ee6 <validate>
  401a6d:	eb 21                	jmp    401a90 <touch3+0x64>
  401a6f:	48 89 da             	mov    %rbx,%rdx
  401a72:	be 80 34 40 00       	mov    $0x403480,%esi
  401a77:	bf 01 00 00 00       	mov    $0x1,%edi
  401a7c:	b8 00 00 00 00       	mov    $0x0,%eax
  401a81:	e8 9a f3 ff ff       	callq  400e20 <__printf_chk@plt>
  401a86:	bf 03 00 00 00       	mov    $0x3,%edi
  401a8b:	e8 18 05 00 00       	callq  401fa8 <fail>
  401a90:	bf 00 00 00 00       	mov    $0x0,%edi
  401a95:	e8 d6 f3 ff ff       	callq  400e70 <exit@plt>

0000000000401a9a <test>:
  401a9a:	48 83 ec 08          	sub    $0x8,%rsp
  401a9e:	b8 00 00 00 00       	mov    $0x0,%eax
  401aa3:	e8 34 fe ff ff       	callq  4018dc <getbuf>
  401aa8:	89 c2                	mov    %eax,%edx
  401aaa:	be a8 34 40 00       	mov    $0x4034a8,%esi
  401aaf:	bf 01 00 00 00       	mov    $0x1,%edi
  401ab4:	b8 00 00 00 00       	mov    $0x0,%eax
  401ab9:	e8 62 f3 ff ff       	callq  400e20 <__printf_chk@plt>
  401abe:	48 83 c4 08          	add    $0x8,%rsp
  401ac2:	c3                   	retq   

0000000000401ac3 <start_farm>:
  401ac3:	b8 01 00 00 00       	mov    $0x1,%eax
  401ac8:	c3                   	retq   

0000000000401ac9 <getval_465>:
  401ac9:	b8 4c 89 c7 c3       	mov    $0xc3c7894c,%eax
  401ace:	c3                   	retq   

0000000000401acf <setval_137>:
  401acf:	c7 07 48 89 c7 90    	movl   $0x90c78948,(%rdi)
  401ad5:	c3                   	retq   

0000000000401ad6 <setval_365>:
  401ad6:	c7 07 48 89 c7 92    	movl   $0x92c78948,(%rdi)
  401adc:	c3                   	retq   

0000000000401add <setval_123>:
  401add:	c7 07 08 58 90 90    	movl   $0x90905808,(%rdi)
  401ae3:	c3                   	retq   

0000000000401ae4 <addval_307>:
  401ae4:	8d 87 99 58 90 c3    	lea    -0x3c6fa767(%rdi),%eax
  401aea:	c3                   	retq   

0000000000401aeb <getval_165>:
  401aeb:	b8 6e 50 c3 ce       	mov    $0xcec3506e,%eax
  401af0:	c3                   	retq   

0000000000401af1 <addval_115>:
  401af1:	8d 87 48 89 c7 90    	lea    -0x6f3876b8(%rdi),%eax
  401af7:	c3                   	retq   

0000000000401af8 <addval_273>:
  401af8:	8d 87 04 00 58 91    	lea    -0x6ea7fffc(%rdi),%eax
  401afe:	c3                   	retq   

0000000000401aff <mid_farm>:
  401aff:	b8 01 00 00 00       	mov    $0x1,%eax
  401b04:	c3                   	retq   

0000000000401b05 <add_xy>:
  401b05:	48 8d 04 37          	lea    (%rdi,%rsi,1),%rax
  401b09:	c3                   	retq   

0000000000401b0a <setval_154>:
  401b0a:	c7 07 89 d1 20 db    	movl   $0xdb20d189,(%rdi)
  401b10:	c3                   	retq   

0000000000401b11 <setval_377>:
  401b11:	c7 07 8d c2 38 d2    	movl   $0xd238c28d,(%rdi)
  401b17:	c3                   	retq   

0000000000401b18 <getval_239>:
  401b18:	b8 48 89 e0 c1       	mov    $0xc1e08948,%eax
  401b1d:	c3                   	retq   

0000000000401b1e <addval_416>:
  401b1e:	8d 87 48 89 e0 c2    	lea    -0x3d1f76b8(%rdi),%eax
  401b24:	c3                   	retq   

0000000000401b25 <getval_248>:
  401b25:	b8 09 d1 c3 18       	mov    $0x18c3d109,%eax
  401b2a:	c3                   	retq   

0000000000401b2b <getval_339>:
  401b2b:	b8 89 d1 90 c1       	mov    $0xc190d189,%eax
  401b30:	c3                   	retq   

0000000000401b31 <setval_498>:
  401b31:	c7 07 89 ce a4 c0    	movl   $0xc0a4ce89,(%rdi)
  401b37:	c3                   	retq   

0000000000401b38 <getval_386>:
  401b38:	b8 a9 d1 08 db       	mov    $0xdb08d1a9,%eax
  401b3d:	c3                   	retq   

0000000000401b3e <setval_212>:
  401b3e:	c7 07 c8 89 e0 c3    	movl   $0xc3e089c8,(%rdi)
  401b44:	c3                   	retq   

0000000000401b45 <setval_464>:
  401b45:	c7 07 89 ce 18 db    	movl   $0xdb18ce89,(%rdi)
  401b4b:	c3                   	retq   

0000000000401b4c <getval_150>:
  401b4c:	b8 89 c2 c4 d2       	mov    $0xd2c4c289,%eax
  401b51:	c3                   	retq   

0000000000401b52 <getval_352>:
  401b52:	b8 48 89 e0 90       	mov    $0x90e08948,%eax
  401b57:	c3                   	retq   

0000000000401b58 <setval_252>:
  401b58:	c7 07 89 ce 00 d2    	movl   $0xd200ce89,(%rdi)
  401b5e:	c3                   	retq   

0000000000401b5f <setval_271>:
  401b5f:	c7 07 c9 ce 20 d2    	movl   $0xd220cec9,(%rdi)
  401b65:	c3                   	retq   

0000000000401b66 <getval_402>:
  401b66:	b8 89 d1 60 d2       	mov    $0xd260d189,%eax
  401b6b:	c3                   	retq   

0000000000401b6c <addval_395>:
  401b6c:	8d 87 89 c2 94 d2    	lea    -0x2d6b3d77(%rdi),%eax
  401b72:	c3                   	retq   

0000000000401b73 <setval_280>:
  401b73:	c7 07 7f 48 a9 e0    	movl   $0xe0a9487f,(%rdi)
  401b79:	c3                   	retq   

0000000000401b7a <setval_430>:
  401b7a:	c7 07 89 ce a4 c9    	movl   $0xc9a4ce89,(%rdi)
  401b80:	c3                   	retq   

0000000000401b81 <getval_285>:
  401b81:	b8 89 d1 20 c9       	mov    $0xc920d189,%eax
  401b86:	c3                   	retq   

0000000000401b87 <getval_438>:
  401b87:	b8 89 ce 08 d2       	mov    $0xd208ce89,%eax
  401b8c:	c3                   	retq   

0000000000401b8d <addval_378>:
  401b8d:	8d 87 89 c2 90 c7    	lea    -0x386f3d77(%rdi),%eax
  401b93:	c3                   	retq   

0000000000401b94 <getval_270>:
  401b94:	b8 4c 89 e0 c3       	mov    $0xc3e0894c,%eax
  401b99:	c3                   	retq   

0000000000401b9a <addval_152>:
  401b9a:	8d 87 89 c2 90 c3    	lea    -0x3c6f3d77(%rdi),%eax
  401ba0:	c3                   	retq   

0000000000401ba1 <getval_403>:
  401ba1:	b8 49 89 e0 c3       	mov    $0xc3e08949,%eax
  401ba6:	c3                   	retq   

0000000000401ba7 <setval_136>:
  401ba7:	c7 07 89 ce c4 d2    	movl   $0xd2c4ce89,(%rdi)
  401bad:	c3                   	retq   

0000000000401bae <getval_302>:
  401bae:	b8 48 89 e0 c3       	mov    $0xc3e08948,%eax
  401bb3:	c3                   	retq   

0000000000401bb4 <getval_258>:
  401bb4:	b8 89 c2 08 db       	mov    $0xdb08c289,%eax
  401bb9:	c3                   	retq   

0000000000401bba <addval_325>:
  401bba:	8d 87 14 89 c2 91    	lea    -0x6e3d76ec(%rdi),%eax
  401bc0:	c3                   	retq   

0000000000401bc1 <setval_497>:
  401bc1:	c7 07 89 c2 60 c0    	movl   $0xc060c289,(%rdi)
  401bc7:	c3                   	retq   

0000000000401bc8 <addval_453>:
  401bc8:	8d 87 89 ce 84 db    	lea    -0x247b3177(%rdi),%eax
  401bce:	c3                   	retq   

0000000000401bcf <setval_279>:
  401bcf:	c7 07 09 d1 84 db    	movl   $0xdb84d109,(%rdi)
  401bd5:	c3                   	retq   

0000000000401bd6 <getval_407>:
  401bd6:	b8 09 d1 20 d2       	mov    $0xd220d109,%eax
  401bdb:	c3                   	retq   

0000000000401bdc <end_farm>:
  401bdc:	b8 01 00 00 00       	mov    $0x1,%eax
  401be1:	c3                   	retq   
  401be2:	66 2e 0f 1f 84 00 00 	nopw   %cs:0x0(%rax,%rax,1)
  401be9:	00 00 00 
  401bec:	0f 1f 40 00          	nopl   0x0(%rax)

0000000000401bf0 <save_char>:
  401bf0:	8b 05 4e 45 20 00    	mov    0x20454e(%rip),%eax        # 606144 <gets_cnt>
  401bf6:	3d ff 03 00 00       	cmp    $0x3ff,%eax
  401bfb:	7f 49                	jg     401c46 <save_char+0x56>
  401bfd:	8d 14 40             	lea    (%rax,%rax,2),%edx
  401c00:	89 f9                	mov    %edi,%ecx
  401c02:	c0 e9 04             	shr    $0x4,%cl
  401c05:	83 e1 0f             	and    $0xf,%ecx
  401c08:	0f b6 b1 d0 37 40 00 	movzbl 0x4037d0(%rcx),%esi
  401c0f:	48 63 ca             	movslq %edx,%rcx
  401c12:	40 88 b1 40 55 60 00 	mov    %sil,0x605540(%rcx)
  401c19:	8d 4a 01             	lea    0x1(%rdx),%ecx
  401c1c:	83 e7 0f             	and    $0xf,%edi
  401c1f:	0f b6 b7 d0 37 40 00 	movzbl 0x4037d0(%rdi),%esi
  401c26:	48 63 c9             	movslq %ecx,%rcx
  401c29:	40 88 b1 40 55 60 00 	mov    %sil,0x605540(%rcx)
  401c30:	83 c2 02             	add    $0x2,%edx
  401c33:	48 63 d2             	movslq %edx,%rdx
  401c36:	c6 82 40 55 60 00 20 	movb   $0x20,0x605540(%rdx)
  401c3d:	83 c0 01             	add    $0x1,%eax
  401c40:	89 05 fe 44 20 00    	mov    %eax,0x2044fe(%rip)        # 606144 <gets_cnt>
  401c46:	f3 c3                	repz retq 

0000000000401c48 <save_term>:
  401c48:	8b 05 f6 44 20 00    	mov    0x2044f6(%rip),%eax        # 606144 <gets_cnt>
  401c4e:	8d 04 40             	lea    (%rax,%rax,2),%eax
  401c51:	48 98                	cltq   
  401c53:	c6 80 40 55 60 00 00 	movb   $0x0,0x605540(%rax)
  401c5a:	c3                   	retq   

0000000000401c5b <check_fail>:
  401c5b:	48 83 ec 08          	sub    $0x8,%rsp
  401c5f:	0f be 15 e2 44 20 00 	movsbl 0x2044e2(%rip),%edx        # 606148 <target_prefix>
  401c66:	41 b8 40 55 60 00    	mov    $0x605540,%r8d
  401c6c:	8b 0d a6 38 20 00    	mov    0x2038a6(%rip),%ecx        # 605518 <check_level>
  401c72:	be cb 34 40 00       	mov    $0x4034cb,%esi
  401c77:	bf 01 00 00 00       	mov    $0x1,%edi
  401c7c:	b8 00 00 00 00       	mov    $0x0,%eax
  401c81:	e8 9a f1 ff ff       	callq  400e20 <__printf_chk@plt>
  401c86:	bf 01 00 00 00       	mov    $0x1,%edi
  401c8b:	e8 e0 f1 ff ff       	callq  400e70 <exit@plt>

0000000000401c90 <Gets>:
  401c90:	41 54                	push   %r12
  401c92:	55                   	push   %rbp
  401c93:	53                   	push   %rbx
  401c94:	49 89 fc             	mov    %rdi,%r12
  401c97:	c7 05 a3 44 20 00 00 	movl   $0x0,0x2044a3(%rip)        # 606144 <gets_cnt>
  401c9e:	00 00 00 
  401ca1:	48 89 fb             	mov    %rdi,%rbx
  401ca4:	eb 11                	jmp    401cb7 <Gets+0x27>
  401ca6:	48 8d 6b 01          	lea    0x1(%rbx),%rbp
  401caa:	88 03                	mov    %al,(%rbx)
  401cac:	0f b6 f8             	movzbl %al,%edi
  401caf:	e8 3c ff ff ff       	callq  401bf0 <save_char>
  401cb4:	48 89 eb             	mov    %rbp,%rbx
  401cb7:	48 8b 3d 52 38 20 00 	mov    0x203852(%rip),%rdi        # 605510 <infile>
  401cbe:	e8 2d f1 ff ff       	callq  400df0 <_IO_getc@plt>
  401cc3:	83 f8 ff             	cmp    $0xffffffff,%eax
  401cc6:	74 05                	je     401ccd <Gets+0x3d>
  401cc8:	83 f8 0a             	cmp    $0xa,%eax
  401ccb:	75 d9                	jne    401ca6 <Gets+0x16>
  401ccd:	c6 03 00             	movb   $0x0,(%rbx)
  401cd0:	b8 00 00 00 00       	mov    $0x0,%eax
  401cd5:	e8 6e ff ff ff       	callq  401c48 <save_term>
  401cda:	4c 89 e0             	mov    %r12,%rax
  401cdd:	5b                   	pop    %rbx
  401cde:	5d                   	pop    %rbp
  401cdf:	41 5c                	pop    %r12
  401ce1:	c3                   	retq   

0000000000401ce2 <notify_server>:
  401ce2:	53                   	push   %rbx
  401ce3:	48 81 ec 30 40 00 00 	sub    $0x4030,%rsp
  401cea:	64 48 8b 04 25 28 00 	mov    %fs:0x28,%rax
  401cf1:	00 00 
  401cf3:	48 89 84 24 28 40 00 	mov    %rax,0x4028(%rsp)
  401cfa:	00 
  401cfb:	31 c0                	xor    %eax,%eax
  401cfd:	83 3d 24 38 20 00 00 	cmpl   $0x0,0x203824(%rip)        # 605528 <is_checker>
  401d04:	0f 85 bb 01 00 00    	jne    401ec5 <notify_server+0x1e3>
  401d0a:	89 fb                	mov    %edi,%ebx
  401d0c:	8b 05 32 44 20 00    	mov    0x204432(%rip),%eax        # 606144 <gets_cnt>
  401d12:	83 c0 64             	add    $0x64,%eax
  401d15:	3d 00 20 00 00       	cmp    $0x2000,%eax
  401d1a:	7e 1e                	jle    401d3a <notify_server+0x58>
  401d1c:	be 00 36 40 00       	mov    $0x403600,%esi
  401d21:	bf 01 00 00 00       	mov    $0x1,%edi
  401d26:	b8 00 00 00 00       	mov    $0x0,%eax
  401d2b:	e8 f0 f0 ff ff       	callq  400e20 <__printf_chk@plt>
  401d30:	bf 01 00 00 00       	mov    $0x1,%edi
  401d35:	e8 36 f1 ff ff       	callq  400e70 <exit@plt>
  401d3a:	0f be 05 07 44 20 00 	movsbl 0x204407(%rip),%eax        # 606148 <target_prefix>
  401d41:	83 3d 60 37 20 00 00 	cmpl   $0x0,0x203760(%rip)        # 6054a8 <notify>
  401d48:	74 08                	je     401d52 <notify_server+0x70>
  401d4a:	8b 15 d0 37 20 00    	mov    0x2037d0(%rip),%edx        # 605520 <authkey>
  401d50:	eb 05                	jmp    401d57 <notify_server+0x75>
  401d52:	ba ff ff ff ff       	mov    $0xffffffff,%edx
  401d57:	85 db                	test   %ebx,%ebx
  401d59:	74 08                	je     401d63 <notify_server+0x81>
  401d5b:	41 b9 e1 34 40 00    	mov    $0x4034e1,%r9d
  401d61:	eb 06                	jmp    401d69 <notify_server+0x87>
  401d63:	41 b9 e6 34 40 00    	mov    $0x4034e6,%r9d
  401d69:	48 c7 44 24 18 40 55 	movq   $0x605540,0x18(%rsp)
  401d70:	60 00 
  401d72:	89 74 24 10          	mov    %esi,0x10(%rsp)
  401d76:	89 44 24 08          	mov    %eax,0x8(%rsp)
  401d7a:	89 14 24             	mov    %edx,(%rsp)
  401d7d:	44 8b 05 e4 33 20 00 	mov    0x2033e4(%rip),%r8d        # 605168 <target_id>
  401d84:	b9 eb 34 40 00       	mov    $0x4034eb,%ecx
  401d89:	ba 00 20 00 00       	mov    $0x2000,%edx
  401d8e:	be 01 00 00 00       	mov    $0x1,%esi
  401d93:	48 8d 7c 24 20       	lea    0x20(%rsp),%rdi
  401d98:	b8 00 00 00 00       	mov    $0x0,%eax
  401d9d:	e8 fe f0 ff ff       	callq  400ea0 <__sprintf_chk@plt>
  401da2:	83 3d ff 36 20 00 00 	cmpl   $0x0,0x2036ff(%rip)        # 6054a8 <notify>
  401da9:	0f 84 86 00 00 00    	je     401e35 <notify_server+0x153>
  401daf:	85 db                	test   %ebx,%ebx
  401db1:	74 70                	je     401e23 <notify_server+0x141>
  401db3:	4c 8d 8c 24 20 20 00 	lea    0x2020(%rsp),%r9
  401dba:	00 
  401dbb:	41 b8 00 00 00 00    	mov    $0x0,%r8d
  401dc1:	48 8d 4c 24 20       	lea    0x20(%rsp),%rcx
  401dc6:	48 8b 15 a3 33 20 00 	mov    0x2033a3(%rip),%rdx        # 605170 <lab>
  401dcd:	48 8b 35 a4 33 20 00 	mov    0x2033a4(%rip),%rsi        # 605178 <course>
  401dd4:	48 8b 3d 85 33 20 00 	mov    0x203385(%rip),%rdi        # 605160 <user_id>
  401ddb:	e8 be 10 00 00       	callq  402e9e <driver_post>
  401de0:	85 c0                	test   %eax,%eax
  401de2:	79 26                	jns    401e0a <notify_server+0x128>
  401de4:	48 8d 94 24 20 20 00 	lea    0x2020(%rsp),%rdx
  401deb:	00 
  401dec:	be 07 35 40 00       	mov    $0x403507,%esi
  401df1:	bf 01 00 00 00       	mov    $0x1,%edi
  401df6:	b8 00 00 00 00       	mov    $0x0,%eax
  401dfb:	e8 20 f0 ff ff       	callq  400e20 <__printf_chk@plt>
  401e00:	bf 01 00 00 00       	mov    $0x1,%edi
  401e05:	e8 66 f0 ff ff       	callq  400e70 <exit@plt>
  401e0a:	bf 30 36 40 00       	mov    $0x403630,%edi
  401e0f:	e8 cc ee ff ff       	callq  400ce0 <puts@plt>
  401e14:	bf 13 35 40 00       	mov    $0x403513,%edi
  401e19:	e8 c2 ee ff ff       	callq  400ce0 <puts@plt>
  401e1e:	e9 a2 00 00 00       	jmpq   401ec5 <notify_server+0x1e3>
  401e23:	bf 1d 35 40 00       	mov    $0x40351d,%edi
  401e28:	e8 b3 ee ff ff       	callq  400ce0 <puts@plt>
  401e2d:	0f 1f 00             	nopl   (%rax)
  401e30:	e9 90 00 00 00       	jmpq   401ec5 <notify_server+0x1e3>
  401e35:	85 db                	test   %ebx,%ebx
  401e37:	74 09                	je     401e42 <notify_server+0x160>
  401e39:	ba e1 34 40 00       	mov    $0x4034e1,%edx
  401e3e:	66 90                	xchg   %ax,%ax
  401e40:	eb 05                	jmp    401e47 <notify_server+0x165>
  401e42:	ba e6 34 40 00       	mov    $0x4034e6,%edx
  401e47:	be 68 36 40 00       	mov    $0x403668,%esi
  401e4c:	bf 01 00 00 00       	mov    $0x1,%edi
  401e51:	b8 00 00 00 00       	mov    $0x0,%eax
  401e56:	e8 c5 ef ff ff       	callq  400e20 <__printf_chk@plt>
  401e5b:	48 8b 15 fe 32 20 00 	mov    0x2032fe(%rip),%rdx        # 605160 <user_id>
  401e62:	be 24 35 40 00       	mov    $0x403524,%esi
  401e67:	bf 01 00 00 00       	mov    $0x1,%edi
  401e6c:	b8 00 00 00 00       	mov    $0x0,%eax
  401e71:	e8 aa ef ff ff       	callq  400e20 <__printf_chk@plt>
  401e76:	48 8b 15 fb 32 20 00 	mov    0x2032fb(%rip),%rdx        # 605178 <course>
  401e7d:	be 31 35 40 00       	mov    $0x403531,%esi
  401e82:	bf 01 00 00 00       	mov    $0x1,%edi
  401e87:	b8 00 00 00 00       	mov    $0x0,%eax
  401e8c:	e8 8f ef ff ff       	callq  400e20 <__printf_chk@plt>
  401e91:	48 8b 15 d8 32 20 00 	mov    0x2032d8(%rip),%rdx        # 605170 <lab>
  401e98:	be 3d 35 40 00       	mov    $0x40353d,%esi
  401e9d:	bf 01 00 00 00       	mov    $0x1,%edi
  401ea2:	b8 00 00 00 00       	mov    $0x0,%eax
  401ea7:	e8 74 ef ff ff       	callq  400e20 <__printf_chk@plt>
  401eac:	48 8d 54 24 20       	lea    0x20(%rsp),%rdx
  401eb1:	be 46 35 40 00       	mov    $0x403546,%esi
  401eb6:	bf 01 00 00 00       	mov    $0x1,%edi
  401ebb:	b8 00 00 00 00       	mov    $0x0,%eax
  401ec0:	e8 5b ef ff ff       	callq  400e20 <__printf_chk@plt>
  401ec5:	48 8b 84 24 28 40 00 	mov    0x4028(%rsp),%rax
  401ecc:	00 
  401ecd:	64 48 33 04 25 28 00 	xor    %fs:0x28,%rax
  401ed4:	00 00 
  401ed6:	74 05                	je     401edd <notify_server+0x1fb>
  401ed8:	e8 23 ee ff ff       	callq  400d00 <__stack_chk_fail@plt>
  401edd:	48 81 c4 30 40 00 00 	add    $0x4030,%rsp
  401ee4:	5b                   	pop    %rbx
  401ee5:	c3                   	retq   

0000000000401ee6 <validate>:
  401ee6:	53                   	push   %rbx
  401ee7:	89 fb                	mov    %edi,%ebx
  401ee9:	83 3d 38 36 20 00 00 	cmpl   $0x0,0x203638(%rip)        # 605528 <is_checker>
  401ef0:	74 6b                	je     401f5d <validate+0x77>
  401ef2:	39 3d 24 36 20 00    	cmp    %edi,0x203624(%rip)        # 60551c <vlevel>
  401ef8:	74 14                	je     401f0e <validate+0x28>
  401efa:	bf 52 35 40 00       	mov    $0x403552,%edi
  401eff:	e8 dc ed ff ff       	callq  400ce0 <puts@plt>
  401f04:	b8 00 00 00 00       	mov    $0x0,%eax
  401f09:	e8 4d fd ff ff       	callq  401c5b <check_fail>
  401f0e:	8b 15 04 36 20 00    	mov    0x203604(%rip),%edx        # 605518 <check_level>
  401f14:	39 fa                	cmp    %edi,%edx
  401f16:	74 20                	je     401f38 <validate+0x52>
  401f18:	89 f9                	mov    %edi,%ecx
  401f1a:	be 90 36 40 00       	mov    $0x403690,%esi
  401f1f:	bf 01 00 00 00       	mov    $0x1,%edi
  401f24:	b8 00 00 00 00       	mov    $0x0,%eax
  401f29:	e8 f2 ee ff ff       	callq  400e20 <__printf_chk@plt>
  401f2e:	b8 00 00 00 00       	mov    $0x0,%eax
  401f33:	e8 23 fd ff ff       	callq  401c5b <check_fail>
  401f38:	0f be 15 09 42 20 00 	movsbl 0x204209(%rip),%edx        # 606148 <target_prefix>
  401f3f:	41 b8 40 55 60 00    	mov    $0x605540,%r8d
  401f45:	89 f9                	mov    %edi,%ecx
  401f47:	be 70 35 40 00       	mov    $0x403570,%esi
  401f4c:	bf 01 00 00 00       	mov    $0x1,%edi
  401f51:	b8 00 00 00 00       	mov    $0x0,%eax
  401f56:	e8 c5 ee ff ff       	callq  400e20 <__printf_chk@plt>
  401f5b:	eb 49                	jmp    401fa6 <validate+0xc0>
  401f5d:	39 3d b9 35 20 00    	cmp    %edi,0x2035b9(%rip)        # 60551c <vlevel>
  401f63:	74 18                	je     401f7d <validate+0x97>
  401f65:	bf 52 35 40 00       	mov    $0x403552,%edi
  401f6a:	e8 71 ed ff ff       	callq  400ce0 <puts@plt>
  401f6f:	89 de                	mov    %ebx,%esi
  401f71:	bf 00 00 00 00       	mov    $0x0,%edi
  401f76:	e8 67 fd ff ff       	callq  401ce2 <notify_server>
  401f7b:	eb 29                	jmp    401fa6 <validate+0xc0>
  401f7d:	0f be 0d c4 41 20 00 	movsbl 0x2041c4(%rip),%ecx        # 606148 <target_prefix>
  401f84:	89 fa                	mov    %edi,%edx
  401f86:	be b8 36 40 00       	mov    $0x4036b8,%esi
  401f8b:	bf 01 00 00 00       	mov    $0x1,%edi
  401f90:	b8 00 00 00 00       	mov    $0x0,%eax
  401f95:	e8 86 ee ff ff       	callq  400e20 <__printf_chk@plt>
  401f9a:	89 de                	mov    %ebx,%esi
  401f9c:	bf 01 00 00 00       	mov    $0x1,%edi
  401fa1:	e8 3c fd ff ff       	callq  401ce2 <notify_server>
  401fa6:	5b                   	pop    %rbx
  401fa7:	c3                   	retq   

0000000000401fa8 <fail>:
  401fa8:	48 83 ec 08          	sub    $0x8,%rsp
  401fac:	83 3d 75 35 20 00 00 	cmpl   $0x0,0x203575(%rip)        # 605528 <is_checker>
  401fb3:	74 0a                	je     401fbf <fail+0x17>
  401fb5:	b8 00 00 00 00       	mov    $0x0,%eax
  401fba:	e8 9c fc ff ff       	callq  401c5b <check_fail>
  401fbf:	89 fe                	mov    %edi,%esi
  401fc1:	bf 00 00 00 00       	mov    $0x0,%edi
  401fc6:	e8 17 fd ff ff       	callq  401ce2 <notify_server>
  401fcb:	48 83 c4 08          	add    $0x8,%rsp
  401fcf:	c3                   	retq   

0000000000401fd0 <bushandler>:
  401fd0:	48 83 ec 08          	sub    $0x8,%rsp
  401fd4:	83 3d 4d 35 20 00 00 	cmpl   $0x0,0x20354d(%rip)        # 605528 <is_checker>
  401fdb:	74 14                	je     401ff1 <bushandler+0x21>
  401fdd:	bf 85 35 40 00       	mov    $0x403585,%edi
  401fe2:	e8 f9 ec ff ff       	callq  400ce0 <puts@plt>
  401fe7:	b8 00 00 00 00       	mov    $0x0,%eax
  401fec:	e8 6a fc ff ff       	callq  401c5b <check_fail>
  401ff1:	bf f0 36 40 00       	mov    $0x4036f0,%edi
  401ff6:	e8 e5 ec ff ff       	callq  400ce0 <puts@plt>
  401ffb:	bf 8f 35 40 00       	mov    $0x40358f,%edi
  402000:	e8 db ec ff ff       	callq  400ce0 <puts@plt>
  402005:	be 00 00 00 00       	mov    $0x0,%esi
  40200a:	bf 00 00 00 00       	mov    $0x0,%edi
  40200f:	e8 ce fc ff ff       	callq  401ce2 <notify_server>
  402014:	bf 01 00 00 00       	mov    $0x1,%edi
  402019:	e8 52 ee ff ff       	callq  400e70 <exit@plt>

000000000040201e <seghandler>:
  40201e:	48 83 ec 08          	sub    $0x8,%rsp
  402022:	83 3d ff 34 20 00 00 	cmpl   $0x0,0x2034ff(%rip)        # 605528 <is_checker>
  402029:	74 14                	je     40203f <seghandler+0x21>
  40202b:	bf a5 35 40 00       	mov    $0x4035a5,%edi
  402030:	e8 ab ec ff ff       	callq  400ce0 <puts@plt>
  402035:	b8 00 00 00 00       	mov    $0x0,%eax
  40203a:	e8 1c fc ff ff       	callq  401c5b <check_fail>
  40203f:	bf 10 37 40 00       	mov    $0x403710,%edi
  402044:	e8 97 ec ff ff       	callq  400ce0 <puts@plt>
  402049:	bf 8f 35 40 00       	mov    $0x40358f,%edi
  40204e:	e8 8d ec ff ff       	callq  400ce0 <puts@plt>
  402053:	be 00 00 00 00       	mov    $0x0,%esi
  402058:	bf 00 00 00 00       	mov    $0x0,%edi
  40205d:	e8 80 fc ff ff       	callq  401ce2 <notify_server>
  402062:	bf 01 00 00 00       	mov    $0x1,%edi
  402067:	e8 04 ee ff ff       	callq  400e70 <exit@plt>

000000000040206c <illegalhandler>:
  40206c:	48 83 ec 08          	sub    $0x8,%rsp
  402070:	83 3d b1 34 20 00 00 	cmpl   $0x0,0x2034b1(%rip)        # 605528 <is_checker>
  402077:	74 14                	je     40208d <illegalhandler+0x21>
  402079:	bf b8 35 40 00       	mov    $0x4035b8,%edi
  40207e:	e8 5d ec ff ff       	callq  400ce0 <puts@plt>
  402083:	b8 00 00 00 00       	mov    $0x0,%eax
  402088:	e8 ce fb ff ff       	callq  401c5b <check_fail>
  40208d:	bf 38 37 40 00       	mov    $0x403738,%edi
  402092:	e8 49 ec ff ff       	callq  400ce0 <puts@plt>
  402097:	bf 8f 35 40 00       	mov    $0x40358f,%edi
  40209c:	e8 3f ec ff ff       	callq  400ce0 <puts@plt>
  4020a1:	be 00 00 00 00       	mov    $0x0,%esi
  4020a6:	bf 00 00 00 00       	mov    $0x0,%edi
  4020ab:	e8 32 fc ff ff       	callq  401ce2 <notify_server>
  4020b0:	bf 01 00 00 00       	mov    $0x1,%edi
  4020b5:	e8 b6 ed ff ff       	callq  400e70 <exit@plt>

00000000004020ba <sigalrmhandler>:
  4020ba:	48 83 ec 08          	sub    $0x8,%rsp
  4020be:	83 3d 63 34 20 00 00 	cmpl   $0x0,0x203463(%rip)        # 605528 <is_checker>
  4020c5:	74 14                	je     4020db <sigalrmhandler+0x21>
  4020c7:	bf cc 35 40 00       	mov    $0x4035cc,%edi
  4020cc:	e8 0f ec ff ff       	callq  400ce0 <puts@plt>
  4020d1:	b8 00 00 00 00       	mov    $0x0,%eax
  4020d6:	e8 80 fb ff ff       	callq  401c5b <check_fail>
  4020db:	ba 05 00 00 00       	mov    $0x5,%edx
  4020e0:	be 68 37 40 00       	mov    $0x403768,%esi
  4020e5:	bf 01 00 00 00       	mov    $0x1,%edi
  4020ea:	b8 00 00 00 00       	mov    $0x0,%eax
  4020ef:	e8 2c ed ff ff       	callq  400e20 <__printf_chk@plt>
  4020f4:	be 00 00 00 00       	mov    $0x0,%esi
  4020f9:	bf 00 00 00 00       	mov    $0x0,%edi
  4020fe:	e8 df fb ff ff       	callq  401ce2 <notify_server>
  402103:	bf 01 00 00 00       	mov    $0x1,%edi
  402108:	e8 63 ed ff ff       	callq  400e70 <exit@plt>

000000000040210d <launch>:
  40210d:	55                   	push   %rbp
  40210e:	48 89 e5             	mov    %rsp,%rbp
  402111:	48 83 ec 10          	sub    $0x10,%rsp
  402115:	48 89 fa             	mov    %rdi,%rdx
  402118:	64 48 8b 04 25 28 00 	mov    %fs:0x28,%rax
  40211f:	00 00 
  402121:	48 89 45 f8          	mov    %rax,-0x8(%rbp)
  402125:	31 c0                	xor    %eax,%eax
  402127:	48 8d 47 1e          	lea    0x1e(%rdi),%rax
  40212b:	48 83 e0 f0          	and    $0xfffffffffffffff0,%rax
  40212f:	48 29 c4             	sub    %rax,%rsp
  402132:	48 8d 7c 24 0f       	lea    0xf(%rsp),%rdi
  402137:	48 83 e7 f0          	and    $0xfffffffffffffff0,%rdi
  40213b:	be f4 00 00 00       	mov    $0xf4,%esi
  402140:	e8 db eb ff ff       	callq  400d20 <memset@plt>
  402145:	48 8b 05 74 33 20 00 	mov    0x203374(%rip),%rax        # 6054c0 <stdin@@GLIBC_2.2.5>
  40214c:	48 39 05 bd 33 20 00 	cmp    %rax,0x2033bd(%rip)        # 605510 <infile>
  402153:	75 14                	jne    402169 <launch+0x5c>
  402155:	be d4 35 40 00       	mov    $0x4035d4,%esi
  40215a:	bf 01 00 00 00       	mov    $0x1,%edi
  40215f:	b8 00 00 00 00       	mov    $0x0,%eax
  402164:	e8 b7 ec ff ff       	callq  400e20 <__printf_chk@plt>
  402169:	c7 05 a9 33 20 00 00 	movl   $0x0,0x2033a9(%rip)        # 60551c <vlevel>
  402170:	00 00 00 
  402173:	b8 00 00 00 00       	mov    $0x0,%eax
  402178:	e8 1d f9 ff ff       	callq  401a9a <test>
  40217d:	83 3d a4 33 20 00 00 	cmpl   $0x0,0x2033a4(%rip)        # 605528 <is_checker>
  402184:	74 14                	je     40219a <launch+0x8d>
  402186:	bf e1 35 40 00       	mov    $0x4035e1,%edi
  40218b:	e8 50 eb ff ff       	callq  400ce0 <puts@plt>
  402190:	b8 00 00 00 00       	mov    $0x0,%eax
  402195:	e8 c1 fa ff ff       	callq  401c5b <check_fail>
  40219a:	bf ec 35 40 00       	mov    $0x4035ec,%edi
  40219f:	e8 3c eb ff ff       	callq  400ce0 <puts@plt>
  4021a4:	48 8b 45 f8          	mov    -0x8(%rbp),%rax
  4021a8:	64 48 33 04 25 28 00 	xor    %fs:0x28,%rax
  4021af:	00 00 
  4021b1:	74 05                	je     4021b8 <launch+0xab>
  4021b3:	e8 48 eb ff ff       	callq  400d00 <__stack_chk_fail@plt>
  4021b8:	c9                   	leaveq 
  4021b9:	c3                   	retq   

00000000004021ba <stable_launch>:
  4021ba:	53                   	push   %rbx
  4021bb:	48 89 3d 46 33 20 00 	mov    %rdi,0x203346(%rip)        # 605508 <global_offset>
  4021c2:	41 b9 00 00 00 00    	mov    $0x0,%r9d
  4021c8:	41 b8 00 00 00 00    	mov    $0x0,%r8d
  4021ce:	b9 32 01 00 00       	mov    $0x132,%ecx
  4021d3:	ba 07 00 00 00       	mov    $0x7,%edx
  4021d8:	be 00 00 10 00       	mov    $0x100000,%esi
  4021dd:	bf 00 60 58 55       	mov    $0x55586000,%edi
  4021e2:	e8 29 eb ff ff       	callq  400d10 <mmap@plt>
  4021e7:	48 89 c3             	mov    %rax,%rbx
  4021ea:	48 3d 00 60 58 55    	cmp    $0x55586000,%rax
  4021f0:	74 37                	je     402229 <stable_launch+0x6f>
  4021f2:	be 00 00 10 00       	mov    $0x100000,%esi
  4021f7:	48 89 c7             	mov    %rax,%rdi
  4021fa:	e8 11 ec ff ff       	callq  400e10 <munmap@plt>
  4021ff:	b9 00 60 58 55       	mov    $0x55586000,%ecx
  402204:	ba a0 37 40 00       	mov    $0x4037a0,%edx
  402209:	be 01 00 00 00       	mov    $0x1,%esi
  40220e:	48 8b 3d d3 32 20 00 	mov    0x2032d3(%rip),%rdi        # 6054e8 <stderr@@GLIBC_2.2.5>
  402215:	b8 00 00 00 00       	mov    $0x0,%eax
  40221a:	e8 71 ec ff ff       	callq  400e90 <__fprintf_chk@plt>
  40221f:	bf 01 00 00 00       	mov    $0x1,%edi
  402224:	e8 47 ec ff ff       	callq  400e70 <exit@plt>
  402229:	48 8d 90 f8 ff 0f 00 	lea    0xffff8(%rax),%rdx
  402230:	48 89 15 19 3f 20 00 	mov    %rdx,0x203f19(%rip)        # 606150 <stack_top>
  402237:	48 89 e0             	mov    %rsp,%rax
  40223a:	48 89 d4             	mov    %rdx,%rsp
  40223d:	48 89 c2             	mov    %rax,%rdx
  402240:	48 89 15 b9 32 20 00 	mov    %rdx,0x2032b9(%rip)        # 605500 <global_save_stack>
  402247:	48 8b 3d ba 32 20 00 	mov    0x2032ba(%rip),%rdi        # 605508 <global_offset>
  40224e:	e8 ba fe ff ff       	callq  40210d <launch>
  402253:	48 8b 05 a6 32 20 00 	mov    0x2032a6(%rip),%rax        # 605500 <global_save_stack>
  40225a:	48 89 c4             	mov    %rax,%rsp
  40225d:	be 00 00 10 00       	mov    $0x100000,%esi
  402262:	48 89 df             	mov    %rbx,%rdi
  402265:	e8 a6 eb ff ff       	callq  400e10 <munmap@plt>
  40226a:	5b                   	pop    %rbx
  40226b:	c3                   	retq   
  40226c:	0f 1f 40 00          	nopl   0x0(%rax)

0000000000402270 <rio_readinitb>:
  402270:	89 37                	mov    %esi,(%rdi)
  402272:	c7 47 04 00 00 00 00 	movl   $0x0,0x4(%rdi)
  402279:	48 8d 47 10          	lea    0x10(%rdi),%rax
  40227d:	48 89 47 08          	mov    %rax,0x8(%rdi)
  402281:	c3                   	retq   

0000000000402282 <sigalrm_handler>:
  402282:	48 83 ec 08          	sub    $0x8,%rsp
  402286:	b9 00 00 00 00       	mov    $0x0,%ecx
  40228b:	ba e0 37 40 00       	mov    $0x4037e0,%edx
  402290:	be 01 00 00 00       	mov    $0x1,%esi
  402295:	48 8b 3d 4c 32 20 00 	mov    0x20324c(%rip),%rdi        # 6054e8 <stderr@@GLIBC_2.2.5>
  40229c:	b8 00 00 00 00       	mov    $0x0,%eax
  4022a1:	e8 ea eb ff ff       	callq  400e90 <__fprintf_chk@plt>
  4022a6:	bf 01 00 00 00       	mov    $0x1,%edi
  4022ab:	e8 c0 eb ff ff       	callq  400e70 <exit@plt>

00000000004022b0 <rio_writen>:
  4022b0:	41 55                	push   %r13
  4022b2:	41 54                	push   %r12
  4022b4:	55                   	push   %rbp
  4022b5:	53                   	push   %rbx
  4022b6:	48 83 ec 08          	sub    $0x8,%rsp
  4022ba:	41 89 fc             	mov    %edi,%r12d
  4022bd:	48 89 f5             	mov    %rsi,%rbp
  4022c0:	49 89 d5             	mov    %rdx,%r13
  4022c3:	48 89 d3             	mov    %rdx,%rbx
  4022c6:	eb 28                	jmp    4022f0 <rio_writen+0x40>
  4022c8:	48 89 da             	mov    %rbx,%rdx
  4022cb:	48 89 ee             	mov    %rbp,%rsi
  4022ce:	44 89 e7             	mov    %r12d,%edi
  4022d1:	e8 1a ea ff ff       	callq  400cf0 <write@plt>
  4022d6:	48 85 c0             	test   %rax,%rax
  4022d9:	7f 0f                	jg     4022ea <rio_writen+0x3a>
  4022db:	e8 c0 e9 ff ff       	callq  400ca0 <__errno_location@plt>
  4022e0:	83 38 04             	cmpl   $0x4,(%rax)
  4022e3:	75 15                	jne    4022fa <rio_writen+0x4a>
  4022e5:	b8 00 00 00 00       	mov    $0x0,%eax
  4022ea:	48 29 c3             	sub    %rax,%rbx
  4022ed:	48 01 c5             	add    %rax,%rbp
  4022f0:	48 85 db             	test   %rbx,%rbx
  4022f3:	75 d3                	jne    4022c8 <rio_writen+0x18>
  4022f5:	4c 89 e8             	mov    %r13,%rax
  4022f8:	eb 07                	jmp    402301 <rio_writen+0x51>
  4022fa:	48 c7 c0 ff ff ff ff 	mov    $0xffffffffffffffff,%rax
  402301:	48 83 c4 08          	add    $0x8,%rsp
  402305:	5b                   	pop    %rbx
  402306:	5d                   	pop    %rbp
  402307:	41 5c                	pop    %r12
  402309:	41 5d                	pop    %r13
  40230b:	c3                   	retq   

000000000040230c <rio_read>:
  40230c:	41 56                	push   %r14
  40230e:	41 55                	push   %r13
  402310:	41 54                	push   %r12
  402312:	55                   	push   %rbp
  402313:	53                   	push   %rbx
  402314:	48 89 fb             	mov    %rdi,%rbx
  402317:	49 89 f6             	mov    %rsi,%r14
  40231a:	49 89 d5             	mov    %rdx,%r13
  40231d:	4c 8d 67 10          	lea    0x10(%rdi),%r12
  402321:	eb 2a                	jmp    40234d <rio_read+0x41>
  402323:	8b 3b                	mov    (%rbx),%edi
  402325:	ba 00 20 00 00       	mov    $0x2000,%edx
  40232a:	4c 89 e6             	mov    %r12,%rsi
  40232d:	e8 1e ea ff ff       	callq  400d50 <read@plt>
  402332:	89 43 04             	mov    %eax,0x4(%rbx)
  402335:	85 c0                	test   %eax,%eax
  402337:	79 0c                	jns    402345 <rio_read+0x39>
  402339:	e8 62 e9 ff ff       	callq  400ca0 <__errno_location@plt>
  40233e:	83 38 04             	cmpl   $0x4,(%rax)
  402341:	74 0a                	je     40234d <rio_read+0x41>
  402343:	eb 37                	jmp    40237c <rio_read+0x70>
  402345:	85 c0                	test   %eax,%eax
  402347:	74 3c                	je     402385 <rio_read+0x79>
  402349:	4c 89 63 08          	mov    %r12,0x8(%rbx)
  40234d:	8b 6b 04             	mov    0x4(%rbx),%ebp
  402350:	85 ed                	test   %ebp,%ebp
  402352:	7e cf                	jle    402323 <rio_read+0x17>
  402354:	89 e8                	mov    %ebp,%eax
  402356:	4c 39 e8             	cmp    %r13,%rax
  402359:	72 03                	jb     40235e <rio_read+0x52>
  40235b:	44 89 ed             	mov    %r13d,%ebp
  40235e:	4c 63 e5             	movslq %ebp,%r12
  402361:	48 8b 73 08          	mov    0x8(%rbx),%rsi
  402365:	4c 89 e2             	mov    %r12,%rdx
  402368:	4c 89 f7             	mov    %r14,%rdi
  40236b:	e8 50 ea ff ff       	callq  400dc0 <memcpy@plt>
  402370:	4c 01 63 08          	add    %r12,0x8(%rbx)
  402374:	29 6b 04             	sub    %ebp,0x4(%rbx)
  402377:	4c 89 e0             	mov    %r12,%rax
  40237a:	eb 0e                	jmp    40238a <rio_read+0x7e>
  40237c:	48 c7 c0 ff ff ff ff 	mov    $0xffffffffffffffff,%rax
  402383:	eb 05                	jmp    40238a <rio_read+0x7e>
  402385:	b8 00 00 00 00       	mov    $0x0,%eax
  40238a:	5b                   	pop    %rbx
  40238b:	5d                   	pop    %rbp
  40238c:	41 5c                	pop    %r12
  40238e:	41 5d                	pop    %r13
  402390:	41 5e                	pop    %r14
  402392:	c3                   	retq   

0000000000402393 <rio_readlineb>:
  402393:	41 55                	push   %r13
  402395:	41 54                	push   %r12
  402397:	55                   	push   %rbp
  402398:	53                   	push   %rbx
  402399:	48 83 ec 18          	sub    $0x18,%rsp
  40239d:	49 89 fd             	mov    %rdi,%r13
  4023a0:	48 89 f5             	mov    %rsi,%rbp
  4023a3:	49 89 d4             	mov    %rdx,%r12
  4023a6:	bb 01 00 00 00       	mov    $0x1,%ebx
  4023ab:	eb 3e                	jmp    4023eb <rio_readlineb+0x58>
  4023ad:	ba 01 00 00 00       	mov    $0x1,%edx
  4023b2:	48 8d 74 24 0f       	lea    0xf(%rsp),%rsi
  4023b7:	4c 89 ef             	mov    %r13,%rdi
  4023ba:	e8 4d ff ff ff       	callq  40230c <rio_read>
  4023bf:	83 f8 01             	cmp    $0x1,%eax
  4023c2:	75 12                	jne    4023d6 <rio_readlineb+0x43>
  4023c4:	48 8d 55 01          	lea    0x1(%rbp),%rdx
  4023c8:	0f b6 44 24 0f       	movzbl 0xf(%rsp),%eax
  4023cd:	88 45 00             	mov    %al,0x0(%rbp)
  4023d0:	3c 0a                	cmp    $0xa,%al
  4023d2:	75 10                	jne    4023e4 <rio_readlineb+0x51>
  4023d4:	eb 1c                	jmp    4023f2 <rio_readlineb+0x5f>
  4023d6:	85 c0                	test   %eax,%eax
  4023d8:	75 24                	jne    4023fe <rio_readlineb+0x6b>
  4023da:	48 83 fb 01          	cmp    $0x1,%rbx
  4023de:	66 90                	xchg   %ax,%ax
  4023e0:	75 13                	jne    4023f5 <rio_readlineb+0x62>
  4023e2:	eb 23                	jmp    402407 <rio_readlineb+0x74>
  4023e4:	48 83 c3 01          	add    $0x1,%rbx
  4023e8:	48 89 d5             	mov    %rdx,%rbp
  4023eb:	4c 39 e3             	cmp    %r12,%rbx
  4023ee:	72 bd                	jb     4023ad <rio_readlineb+0x1a>
  4023f0:	eb 03                	jmp    4023f5 <rio_readlineb+0x62>
  4023f2:	48 89 d5             	mov    %rdx,%rbp
  4023f5:	c6 45 00 00          	movb   $0x0,0x0(%rbp)
  4023f9:	48 89 d8             	mov    %rbx,%rax
  4023fc:	eb 0e                	jmp    40240c <rio_readlineb+0x79>
  4023fe:	48 c7 c0 ff ff ff ff 	mov    $0xffffffffffffffff,%rax
  402405:	eb 05                	jmp    40240c <rio_readlineb+0x79>
  402407:	b8 00 00 00 00       	mov    $0x0,%eax
  40240c:	48 83 c4 18          	add    $0x18,%rsp
  402410:	5b                   	pop    %rbx
  402411:	5d                   	pop    %rbp
  402412:	41 5c                	pop    %r12
  402414:	41 5d                	pop    %r13
  402416:	c3                   	retq   

0000000000402417 <urlencode>:
  402417:	41 54                	push   %r12
  402419:	55                   	push   %rbp
  40241a:	53                   	push   %rbx
  40241b:	48 83 ec 10          	sub    $0x10,%rsp
  40241f:	48 89 fb             	mov    %rdi,%rbx
  402422:	48 89 f5             	mov    %rsi,%rbp
  402425:	64 48 8b 04 25 28 00 	mov    %fs:0x28,%rax
  40242c:	00 00 
  40242e:	48 89 44 24 08       	mov    %rax,0x8(%rsp)
  402433:	31 c0                	xor    %eax,%eax
  402435:	48 c7 c1 ff ff ff ff 	mov    $0xffffffffffffffff,%rcx
  40243c:	f2 ae                	repnz scas %es:(%rdi),%al
  40243e:	48 f7 d1             	not    %rcx
  402441:	8d 41 ff             	lea    -0x1(%rcx),%eax
  402444:	e9 aa 00 00 00       	jmpq   4024f3 <urlencode+0xdc>
  402449:	44 0f b6 03          	movzbl (%rbx),%r8d
  40244d:	41 80 f8 2a          	cmp    $0x2a,%r8b
  402451:	0f 94 c2             	sete   %dl
  402454:	41 80 f8 2d          	cmp    $0x2d,%r8b
  402458:	0f 94 c0             	sete   %al
  40245b:	08 c2                	or     %al,%dl
  40245d:	75 24                	jne    402483 <urlencode+0x6c>
  40245f:	41 80 f8 2e          	cmp    $0x2e,%r8b
  402463:	74 1e                	je     402483 <urlencode+0x6c>
  402465:	41 80 f8 5f          	cmp    $0x5f,%r8b
  402469:	74 18                	je     402483 <urlencode+0x6c>
  40246b:	41 8d 40 d0          	lea    -0x30(%r8),%eax
  40246f:	3c 09                	cmp    $0x9,%al
  402471:	76 10                	jbe    402483 <urlencode+0x6c>
  402473:	41 8d 40 bf          	lea    -0x41(%r8),%eax
  402477:	3c 19                	cmp    $0x19,%al
  402479:	76 08                	jbe    402483 <urlencode+0x6c>
  40247b:	41 8d 40 9f          	lea    -0x61(%r8),%eax
  40247f:	3c 19                	cmp    $0x19,%al
  402481:	77 0a                	ja     40248d <urlencode+0x76>
  402483:	44 88 45 00          	mov    %r8b,0x0(%rbp)
  402487:	48 8d 6d 01          	lea    0x1(%rbp),%rbp
  40248b:	eb 5f                	jmp    4024ec <urlencode+0xd5>
  40248d:	41 80 f8 20          	cmp    $0x20,%r8b
  402491:	75 0a                	jne    40249d <urlencode+0x86>
  402493:	c6 45 00 2b          	movb   $0x2b,0x0(%rbp)
  402497:	48 8d 6d 01          	lea    0x1(%rbp),%rbp
  40249b:	eb 4f                	jmp    4024ec <urlencode+0xd5>
  40249d:	41 8d 40 e0          	lea    -0x20(%r8),%eax
  4024a1:	3c 5f                	cmp    $0x5f,%al
  4024a3:	0f 96 c2             	setbe  %dl
  4024a6:	41 80 f8 09          	cmp    $0x9,%r8b
  4024aa:	0f 94 c0             	sete   %al
  4024ad:	08 c2                	or     %al,%dl
  4024af:	74 50                	je     402501 <urlencode+0xea>
  4024b1:	45 0f b6 c0          	movzbl %r8b,%r8d
  4024b5:	b9 78 38 40 00       	mov    $0x403878,%ecx
  4024ba:	ba 08 00 00 00       	mov    $0x8,%edx
  4024bf:	be 01 00 00 00       	mov    $0x1,%esi
  4024c4:	48 89 e7             	mov    %rsp,%rdi
  4024c7:	b8 00 00 00 00       	mov    $0x0,%eax
  4024cc:	e8 cf e9 ff ff       	callq  400ea0 <__sprintf_chk@plt>
  4024d1:	0f b6 04 24          	movzbl (%rsp),%eax
  4024d5:	88 45 00             	mov    %al,0x0(%rbp)
  4024d8:	0f b6 44 24 01       	movzbl 0x1(%rsp),%eax
  4024dd:	88 45 01             	mov    %al,0x1(%rbp)
  4024e0:	0f b6 44 24 02       	movzbl 0x2(%rsp),%eax
  4024e5:	88 45 02             	mov    %al,0x2(%rbp)
  4024e8:	48 8d 6d 03          	lea    0x3(%rbp),%rbp
  4024ec:	48 83 c3 01          	add    $0x1,%rbx
  4024f0:	44 89 e0             	mov    %r12d,%eax
  4024f3:	44 8d 60 ff          	lea    -0x1(%rax),%r12d
  4024f7:	85 c0                	test   %eax,%eax
  4024f9:	0f 85 4a ff ff ff    	jne    402449 <urlencode+0x32>
  4024ff:	eb 05                	jmp    402506 <urlencode+0xef>
  402501:	b8 ff ff ff ff       	mov    $0xffffffff,%eax
  402506:	48 8b 74 24 08       	mov    0x8(%rsp),%rsi
  40250b:	64 48 33 34 25 28 00 	xor    %fs:0x28,%rsi
  402512:	00 00 
  402514:	74 05                	je     40251b <urlencode+0x104>
  402516:	e8 e5 e7 ff ff       	callq  400d00 <__stack_chk_fail@plt>
  40251b:	48 83 c4 10          	add    $0x10,%rsp
  40251f:	5b                   	pop    %rbx
  402520:	5d                   	pop    %rbp
  402521:	41 5c                	pop    %r12
  402523:	c3                   	retq   

0000000000402524 <submitr>:
  402524:	41 57                	push   %r15
  402526:	41 56                	push   %r14
  402528:	41 55                	push   %r13
  40252a:	41 54                	push   %r12
  40252c:	55                   	push   %rbp
  40252d:	53                   	push   %rbx
  40252e:	48 81 ec 68 a0 00 00 	sub    $0xa068,%rsp
  402535:	49 89 fc             	mov    %rdi,%r12
  402538:	89 74 24 14          	mov    %esi,0x14(%rsp)
  40253c:	49 89 d7             	mov    %rdx,%r15
  40253f:	49 89 ce             	mov    %rcx,%r14
  402542:	4c 89 44 24 18       	mov    %r8,0x18(%rsp)
  402547:	4d 89 cd             	mov    %r9,%r13
  40254a:	48 8b 9c 24 a0 a0 00 	mov    0xa0a0(%rsp),%rbx
  402551:	00 
  402552:	64 48 8b 04 25 28 00 	mov    %fs:0x28,%rax
  402559:	00 00 
  40255b:	48 89 84 24 58 a0 00 	mov    %rax,0xa058(%rsp)
  402562:	00 
  402563:	31 c0                	xor    %eax,%eax
  402565:	c7 44 24 2c 00 00 00 	movl   $0x0,0x2c(%rsp)
  40256c:	00 
  40256d:	ba 00 00 00 00       	mov    $0x0,%edx
  402572:	be 01 00 00 00       	mov    $0x1,%esi
  402577:	bf 02 00 00 00       	mov    $0x2,%edi
  40257c:	e8 2f e9 ff ff       	callq  400eb0 <socket@plt>
  402581:	89 c5                	mov    %eax,%ebp
  402583:	85 c0                	test   %eax,%eax
  402585:	79 4e                	jns    4025d5 <submitr+0xb1>
  402587:	48 b8 45 72 72 6f 72 	movabs $0x43203a726f727245,%rax
  40258e:	3a 20 43 
  402591:	48 89 03             	mov    %rax,(%rbx)
  402594:	48 b8 6c 69 65 6e 74 	movabs $0x6e7520746e65696c,%rax
  40259b:	20 75 6e 
  40259e:	48 89 43 08          	mov    %rax,0x8(%rbx)
  4025a2:	48 b8 61 62 6c 65 20 	movabs $0x206f7420656c6261,%rax
  4025a9:	74 6f 20 
  4025ac:	48 89 43 10          	mov    %rax,0x10(%rbx)
  4025b0:	48 b8 63 72 65 61 74 	movabs $0x7320657461657263,%rax
  4025b7:	65 20 73 
  4025ba:	48 89 43 18          	mov    %rax,0x18(%rbx)
  4025be:	c7 43 20 6f 63 6b 65 	movl   $0x656b636f,0x20(%rbx)
  4025c5:	66 c7 43 24 74 00    	movw   $0x74,0x24(%rbx)
  4025cb:	b8 ff ff ff ff       	mov    $0xffffffff,%eax
  4025d0:	e9 84 06 00 00       	jmpq   402c59 <submitr+0x735>
  4025d5:	4c 89 e7             	mov    %r12,%rdi
  4025d8:	e8 a3 e7 ff ff       	callq  400d80 <gethostbyname@plt>
  4025dd:	48 85 c0             	test   %rax,%rax
  4025e0:	75 67                	jne    402649 <submitr+0x125>
  4025e2:	48 b8 45 72 72 6f 72 	movabs $0x44203a726f727245,%rax
  4025e9:	3a 20 44 
  4025ec:	48 89 03             	mov    %rax,(%rbx)
  4025ef:	48 b8 4e 53 20 69 73 	movabs $0x6e7520736920534e,%rax
  4025f6:	20 75 6e 
  4025f9:	48 89 43 08          	mov    %rax,0x8(%rbx)
  4025fd:	48 b8 61 62 6c 65 20 	movabs $0x206f7420656c6261,%rax
  402604:	74 6f 20 
  402607:	48 89 43 10          	mov    %rax,0x10(%rbx)
  40260b:	48 b8 72 65 73 6f 6c 	movabs $0x2065766c6f736572,%rax
  402612:	76 65 20 
  402615:	48 89 43 18          	mov    %rax,0x18(%rbx)
  402619:	48 b8 73 65 72 76 65 	movabs $0x6120726576726573,%rax
  402620:	72 20 61 
  402623:	48 89 43 20          	mov    %rax,0x20(%rbx)
  402627:	c7 43 28 64 64 72 65 	movl   $0x65726464,0x28(%rbx)
  40262e:	66 c7 43 2c 73 73    	movw   $0x7373,0x2c(%rbx)
  402634:	c6 43 2e 00          	movb   $0x0,0x2e(%rbx)
  402638:	89 ef                	mov    %ebp,%edi
  40263a:	e8 01 e7 ff ff       	callq  400d40 <close@plt>
  40263f:	b8 ff ff ff ff       	mov    $0xffffffff,%eax
  402644:	e9 10 06 00 00       	jmpq   402c59 <submitr+0x735>
  402649:	48 c7 44 24 30 00 00 	movq   $0x0,0x30(%rsp)
  402650:	00 00 
  402652:	48 c7 44 24 38 00 00 	movq   $0x0,0x38(%rsp)
  402659:	00 00 
  40265b:	66 c7 44 24 30 02 00 	movw   $0x2,0x30(%rsp)
  402662:	48 63 50 14          	movslq 0x14(%rax),%rdx
  402666:	48 8b 40 18          	mov    0x18(%rax),%rax
  40266a:	48 8b 30             	mov    (%rax),%rsi
  40266d:	48 8d 7c 24 34       	lea    0x34(%rsp),%rdi
  402672:	b9 0c 00 00 00       	mov    $0xc,%ecx
  402677:	e8 14 e7 ff ff       	callq  400d90 <__memmove_chk@plt>
  40267c:	0f b7 44 24 14       	movzwl 0x14(%rsp),%eax
  402681:	66 c1 c8 08          	ror    $0x8,%ax
  402685:	66 89 44 24 32       	mov    %ax,0x32(%rsp)
  40268a:	ba 10 00 00 00       	mov    $0x10,%edx
  40268f:	48 8d 74 24 30       	lea    0x30(%rsp),%rsi
  402694:	89 ef                	mov    %ebp,%edi
  402696:	e8 e5 e7 ff ff       	callq  400e80 <connect@plt>
  40269b:	85 c0                	test   %eax,%eax
  40269d:	79 59                	jns    4026f8 <submitr+0x1d4>
  40269f:	48 b8 45 72 72 6f 72 	movabs $0x55203a726f727245,%rax
  4026a6:	3a 20 55 
  4026a9:	48 89 03             	mov    %rax,(%rbx)
  4026ac:	48 b8 6e 61 62 6c 65 	movabs $0x6f7420656c62616e,%rax
  4026b3:	20 74 6f 
  4026b6:	48 89 43 08          	mov    %rax,0x8(%rbx)
  4026ba:	48 b8 20 63 6f 6e 6e 	movabs $0x7463656e6e6f6320,%rax
  4026c1:	65 63 74 
  4026c4:	48 89 43 10          	mov    %rax,0x10(%rbx)
  4026c8:	48 b8 20 74 6f 20 74 	movabs $0x20656874206f7420,%rax
  4026cf:	68 65 20 
  4026d2:	48 89 43 18          	mov    %rax,0x18(%rbx)
  4026d6:	c7 43 20 73 65 72 76 	movl   $0x76726573,0x20(%rbx)
  4026dd:	66 c7 43 24 65 72    	movw   $0x7265,0x24(%rbx)
  4026e3:	c6 43 26 00          	movb   $0x0,0x26(%rbx)
  4026e7:	89 ef                	mov    %ebp,%edi
  4026e9:	e8 52 e6 ff ff       	callq  400d40 <close@plt>
  4026ee:	b8 ff ff ff ff       	mov    $0xffffffff,%eax
  4026f3:	e9 61 05 00 00       	jmpq   402c59 <submitr+0x735>
  4026f8:	48 c7 c2 ff ff ff ff 	mov    $0xffffffffffffffff,%rdx
  4026ff:	4c 89 ef             	mov    %r13,%rdi
  402702:	b8 00 00 00 00       	mov    $0x0,%eax
  402707:	48 89 d1             	mov    %rdx,%rcx
  40270a:	f2 ae                	repnz scas %es:(%rdi),%al
  40270c:	48 f7 d1             	not    %rcx
  40270f:	48 89 ce             	mov    %rcx,%rsi
  402712:	4c 89 ff             	mov    %r15,%rdi
  402715:	48 89 d1             	mov    %rdx,%rcx
  402718:	f2 ae                	repnz scas %es:(%rdi),%al
  40271a:	48 f7 d1             	not    %rcx
  40271d:	49 89 c8             	mov    %rcx,%r8
  402720:	4c 89 f7             	mov    %r14,%rdi
  402723:	48 89 d1             	mov    %rdx,%rcx
  402726:	f2 ae                	repnz scas %es:(%rdi),%al
  402728:	49 29 c8             	sub    %rcx,%r8
  40272b:	48 8b 7c 24 18       	mov    0x18(%rsp),%rdi
  402730:	48 89 d1             	mov    %rdx,%rcx
  402733:	f2 ae                	repnz scas %es:(%rdi),%al
  402735:	49 29 c8             	sub    %rcx,%r8
  402738:	48 8d 44 76 fd       	lea    -0x3(%rsi,%rsi,2),%rax
  40273d:	49 8d 44 00 7b       	lea    0x7b(%r8,%rax,1),%rax
  402742:	48 3d 00 20 00 00    	cmp    $0x2000,%rax
  402748:	76 72                	jbe    4027bc <submitr+0x298>
  40274a:	48 b8 45 72 72 6f 72 	movabs $0x52203a726f727245,%rax
  402751:	3a 20 52 
  402754:	48 89 03             	mov    %rax,(%rbx)
  402757:	48 b8 65 73 75 6c 74 	movabs $0x747320746c757365,%rax
  40275e:	20 73 74 
  402761:	48 89 43 08          	mov    %rax,0x8(%rbx)
  402765:	48 b8 72 69 6e 67 20 	movabs $0x6f6f7420676e6972,%rax
  40276c:	74 6f 6f 
  40276f:	48 89 43 10          	mov    %rax,0x10(%rbx)
  402773:	48 b8 20 6c 61 72 67 	movabs $0x202e656772616c20,%rax
  40277a:	65 2e 20 
  40277d:	48 89 43 18          	mov    %rax,0x18(%rbx)
  402781:	48 b8 49 6e 63 72 65 	movabs $0x6573616572636e49,%rax
  402788:	61 73 65 
  40278b:	48 89 43 20          	mov    %rax,0x20(%rbx)
  40278f:	48 b8 20 53 55 42 4d 	movabs $0x5254494d42555320,%rax
  402796:	49 54 52 
  402799:	48 89 43 28          	mov    %rax,0x28(%rbx)
  40279d:	48 b8 5f 4d 41 58 42 	movabs $0x46554258414d5f,%rax
  4027a4:	55 46 00 
  4027a7:	48 89 43 30          	mov    %rax,0x30(%rbx)
  4027ab:	89 ef                	mov    %ebp,%edi
  4027ad:	e8 8e e5 ff ff       	callq  400d40 <close@plt>
  4027b2:	b8 ff ff ff ff       	mov    $0xffffffff,%eax
  4027b7:	e9 9d 04 00 00       	jmpq   402c59 <submitr+0x735>
  4027bc:	48 8d b4 24 40 20 00 	lea    0x2040(%rsp),%rsi
  4027c3:	00 
  4027c4:	b9 00 04 00 00       	mov    $0x400,%ecx
  4027c9:	b8 00 00 00 00       	mov    $0x0,%eax
  4027ce:	48 89 f7             	mov    %rsi,%rdi
  4027d1:	f3 48 ab             	rep stos %rax,%es:(%rdi)
  4027d4:	4c 89 ef             	mov    %r13,%rdi
  4027d7:	e8 3b fc ff ff       	callq  402417 <urlencode>
  4027dc:	85 c0                	test   %eax,%eax
  4027de:	0f 89 8a 00 00 00    	jns    40286e <submitr+0x34a>
  4027e4:	48 b8 45 72 72 6f 72 	movabs $0x52203a726f727245,%rax
  4027eb:	3a 20 52 
  4027ee:	48 89 03             	mov    %rax,(%rbx)
  4027f1:	48 b8 65 73 75 6c 74 	movabs $0x747320746c757365,%rax
  4027f8:	20 73 74 
  4027fb:	48 89 43 08          	mov    %rax,0x8(%rbx)
  4027ff:	48 b8 72 69 6e 67 20 	movabs $0x6e6f6320676e6972,%rax
  402806:	63 6f 6e 
  402809:	48 89 43 10          	mov    %rax,0x10(%rbx)
  40280d:	48 b8 74 61 69 6e 73 	movabs $0x6e6120736e696174,%rax
  402814:	20 61 6e 
  402817:	48 89 43 18          	mov    %rax,0x18(%rbx)
  40281b:	48 b8 20 69 6c 6c 65 	movabs $0x6c6167656c6c6920,%rax
  402822:	67 61 6c 
  402825:	48 89 43 20          	mov    %rax,0x20(%rbx)
  402829:	48 b8 20 6f 72 20 75 	movabs $0x72706e7520726f20,%rax
  402830:	6e 70 72 
  402833:	48 89 43 28          	mov    %rax,0x28(%rbx)
  402837:	48 b8 69 6e 74 61 62 	movabs $0x20656c6261746e69,%rax
  40283e:	6c 65 20 
  402841:	48 89 43 30          	mov    %rax,0x30(%rbx)
  402845:	48 b8 63 68 61 72 61 	movabs $0x6574636172616863,%rax
  40284c:	63 74 65 
  40284f:	48 89 43 38          	mov    %rax,0x38(%rbx)
  402853:	66 c7 43 40 72 2e    	movw   $0x2e72,0x40(%rbx)
  402859:	c6 43 42 00          	movb   $0x0,0x42(%rbx)
  40285d:	89 ef                	mov    %ebp,%edi
  40285f:	e8 dc e4 ff ff       	callq  400d40 <close@plt>
  402864:	b8 ff ff ff ff       	mov    $0xffffffff,%eax
  402869:	e9 eb 03 00 00       	jmpq   402c59 <submitr+0x735>
  40286e:	4c 89 64 24 08       	mov    %r12,0x8(%rsp)
  402873:	48 8d 84 24 40 20 00 	lea    0x2040(%rsp),%rax
  40287a:	00 
  40287b:	48 89 04 24          	mov    %rax,(%rsp)
  40287f:	4d 89 f9             	mov    %r15,%r9
  402882:	4d 89 f0             	mov    %r14,%r8
  402885:	b9 08 38 40 00       	mov    $0x403808,%ecx
  40288a:	ba 00 20 00 00       	mov    $0x2000,%edx
  40288f:	be 01 00 00 00       	mov    $0x1,%esi
  402894:	48 8d 7c 24 40       	lea    0x40(%rsp),%rdi
  402899:	b8 00 00 00 00       	mov    $0x0,%eax
  40289e:	e8 fd e5 ff ff       	callq  400ea0 <__sprintf_chk@plt>
  4028a3:	48 8d 7c 24 40       	lea    0x40(%rsp),%rdi
  4028a8:	b8 00 00 00 00       	mov    $0x0,%eax
  4028ad:	48 c7 c1 ff ff ff ff 	mov    $0xffffffffffffffff,%rcx
  4028b4:	f2 ae                	repnz scas %es:(%rdi),%al
  4028b6:	48 f7 d1             	not    %rcx
  4028b9:	48 8d 51 ff          	lea    -0x1(%rcx),%rdx
  4028bd:	48 8d 74 24 40       	lea    0x40(%rsp),%rsi
  4028c2:	89 ef                	mov    %ebp,%edi
  4028c4:	e8 e7 f9 ff ff       	callq  4022b0 <rio_writen>
  4028c9:	48 85 c0             	test   %rax,%rax
  4028cc:	79 6e                	jns    40293c <submitr+0x418>
  4028ce:	48 b8 45 72 72 6f 72 	movabs $0x43203a726f727245,%rax
  4028d5:	3a 20 43 
  4028d8:	48 89 03             	mov    %rax,(%rbx)
  4028db:	48 b8 6c 69 65 6e 74 	movabs $0x6e7520746e65696c,%rax
  4028e2:	20 75 6e 
  4028e5:	48 89 43 08          	mov    %rax,0x8(%rbx)
  4028e9:	48 b8 61 62 6c 65 20 	movabs $0x206f7420656c6261,%rax
  4028f0:	74 6f 20 
  4028f3:	48 89 43 10          	mov    %rax,0x10(%rbx)
  4028f7:	48 b8 77 72 69 74 65 	movabs $0x6f74206574697277,%rax
  4028fe:	20 74 6f 
  402901:	48 89 43 18          	mov    %rax,0x18(%rbx)
  402905:	48 b8 20 74 68 65 20 	movabs $0x7365722065687420,%rax
  40290c:	72 65 73 
  40290f:	48 89 43 20          	mov    %rax,0x20(%rbx)
  402913:	48 b8 75 6c 74 20 73 	movabs $0x7672657320746c75,%rax
  40291a:	65 72 76 
  40291d:	48 89 43 28          	mov    %rax,0x28(%rbx)
  402921:	66 c7 43 30 65 72    	movw   $0x7265,0x30(%rbx)
  402927:	c6 43 32 00          	movb   $0x0,0x32(%rbx)
  40292b:	89 ef                	mov    %ebp,%edi
  40292d:	e8 0e e4 ff ff       	callq  400d40 <close@plt>
  402932:	b8 ff ff ff ff       	mov    $0xffffffff,%eax
  402937:	e9 1d 03 00 00       	jmpq   402c59 <submitr+0x735>
  40293c:	89 ee                	mov    %ebp,%esi
  40293e:	48 8d bc 24 40 80 00 	lea    0x8040(%rsp),%rdi
  402945:	00 
  402946:	e8 25 f9 ff ff       	callq  402270 <rio_readinitb>
  40294b:	ba 00 20 00 00       	mov    $0x2000,%edx
  402950:	48 8d 74 24 40       	lea    0x40(%rsp),%rsi
  402955:	48 8d bc 24 40 80 00 	lea    0x8040(%rsp),%rdi
  40295c:	00 
  40295d:	e8 31 fa ff ff       	callq  402393 <rio_readlineb>
  402962:	48 85 c0             	test   %rax,%rax
  402965:	7f 7d                	jg     4029e4 <submitr+0x4c0>
  402967:	48 b8 45 72 72 6f 72 	movabs $0x43203a726f727245,%rax
  40296e:	3a 20 43 
  402971:	48 89 03             	mov    %rax,(%rbx)
  402974:	48 b8 6c 69 65 6e 74 	movabs $0x6e7520746e65696c,%rax
  40297b:	20 75 6e 
  40297e:	48 89 43 08          	mov    %rax,0x8(%rbx)
  402982:	48 b8 61 62 6c 65 20 	movabs $0x206f7420656c6261,%rax
  402989:	74 6f 20 
  40298c:	48 89 43 10          	mov    %rax,0x10(%rbx)
  402990:	48 b8 72 65 61 64 20 	movabs $0x7269662064616572,%rax
  402997:	66 69 72 
  40299a:	48 89 43 18          	mov    %rax,0x18(%rbx)
  40299e:	48 b8 73 74 20 68 65 	movabs $0x6564616568207473,%rax
  4029a5:	61 64 65 
  4029a8:	48 89 43 20          	mov    %rax,0x20(%rbx)
  4029ac:	48 b8 72 20 66 72 6f 	movabs $0x72206d6f72662072,%rax
  4029b3:	6d 20 72 
  4029b6:	48 89 43 28          	mov    %rax,0x28(%rbx)
  4029ba:	48 b8 65 73 75 6c 74 	movabs $0x657320746c757365,%rax
  4029c1:	20 73 65 
  4029c4:	48 89 43 30          	mov    %rax,0x30(%rbx)
  4029c8:	c7 43 38 72 76 65 72 	movl   $0x72657672,0x38(%rbx)
  4029cf:	c6 43 3c 00          	movb   $0x0,0x3c(%rbx)
  4029d3:	89 ef                	mov    %ebp,%edi
  4029d5:	e8 66 e3 ff ff       	callq  400d40 <close@plt>
  4029da:	b8 ff ff ff ff       	mov    $0xffffffff,%eax
  4029df:	e9 75 02 00 00       	jmpq   402c59 <submitr+0x735>
  4029e4:	4c 8d 84 24 40 60 00 	lea    0x6040(%rsp),%r8
  4029eb:	00 
  4029ec:	48 8d 4c 24 2c       	lea    0x2c(%rsp),%rcx
  4029f1:	48 8d 94 24 40 40 00 	lea    0x4040(%rsp),%rdx
  4029f8:	00 
  4029f9:	be 7f 38 40 00       	mov    $0x40387f,%esi
  4029fe:	48 8d 7c 24 40       	lea    0x40(%rsp),%rdi
  402a03:	b8 00 00 00 00       	mov    $0x0,%eax
  402a08:	e8 f3 e3 ff ff       	callq  400e00 <__isoc99_sscanf@plt>
  402a0d:	41 bc 0d 00 00 00    	mov    $0xd,%r12d
  402a13:	41 bd 0a 00 00 00    	mov    $0xa,%r13d
  402a19:	e9 95 00 00 00       	jmpq   402ab3 <submitr+0x58f>
  402a1e:	ba 00 20 00 00       	mov    $0x2000,%edx
  402a23:	48 8d 74 24 40       	lea    0x40(%rsp),%rsi
  402a28:	48 8d bc 24 40 80 00 	lea    0x8040(%rsp),%rdi
  402a2f:	00 
  402a30:	e8 5e f9 ff ff       	callq  402393 <rio_readlineb>
  402a35:	48 85 c0             	test   %rax,%rax
  402a38:	7f 79                	jg     402ab3 <submitr+0x58f>
  402a3a:	48 b8 45 72 72 6f 72 	movabs $0x43203a726f727245,%rax
  402a41:	3a 20 43 
  402a44:	48 89 03             	mov    %rax,(%rbx)
  402a47:	48 b8 6c 69 65 6e 74 	movabs $0x6e7520746e65696c,%rax
  402a4e:	20 75 6e 
  402a51:	48 89 43 08          	mov    %rax,0x8(%rbx)
  402a55:	48 b8 61 62 6c 65 20 	movabs $0x206f7420656c6261,%rax
  402a5c:	74 6f 20 
  402a5f:	48 89 43 10          	mov    %rax,0x10(%rbx)
  402a63:	48 b8 72 65 61 64 20 	movabs $0x6165682064616572,%rax
  402a6a:	68 65 61 
  402a6d:	48 89 43 18          	mov    %rax,0x18(%rbx)
  402a71:	48 b8 64 65 72 73 20 	movabs $0x6f72662073726564,%rax
  402a78:	66 72 6f 
  402a7b:	48 89 43 20          	mov    %rax,0x20(%rbx)
  402a7f:	48 b8 6d 20 74 68 65 	movabs $0x657220656874206d,%rax
  402a86:	20 72 65 
  402a89:	48 89 43 28          	mov    %rax,0x28(%rbx)
  402a8d:	48 b8 73 75 6c 74 20 	movabs $0x72657320746c7573,%rax
  402a94:	73 65 72 
  402a97:	48 89 43 30          	mov    %rax,0x30(%rbx)
  402a9b:	c7 43 38 76 65 72 00 	movl   $0x726576,0x38(%rbx)
  402aa2:	89 ef                	mov    %ebp,%edi
  402aa4:	e8 97 e2 ff ff       	callq  400d40 <close@plt>
  402aa9:	b8 ff ff ff ff       	mov    $0xffffffff,%eax
  402aae:	e9 a6 01 00 00       	jmpq   402c59 <submitr+0x735>
  402ab3:	0f b6 44 24 40       	movzbl 0x40(%rsp),%eax
  402ab8:	44 89 e6             	mov    %r12d,%esi
  402abb:	29 c6                	sub    %eax,%esi
  402abd:	89 f0                	mov    %esi,%eax
  402abf:	75 15                	jne    402ad6 <submitr+0x5b2>
  402ac1:	0f b6 44 24 41       	movzbl 0x41(%rsp),%eax
  402ac6:	44 89 ea             	mov    %r13d,%edx
  402ac9:	29 c2                	sub    %eax,%edx
  402acb:	89 d0                	mov    %edx,%eax
  402acd:	75 07                	jne    402ad6 <submitr+0x5b2>
  402acf:	0f b6 44 24 42       	movzbl 0x42(%rsp),%eax
  402ad4:	f7 d8                	neg    %eax
  402ad6:	85 c0                	test   %eax,%eax
  402ad8:	0f 85 40 ff ff ff    	jne    402a1e <submitr+0x4fa>
  402ade:	ba 00 20 00 00       	mov    $0x2000,%edx
  402ae3:	48 8d 74 24 40       	lea    0x40(%rsp),%rsi
  402ae8:	48 8d bc 24 40 80 00 	lea    0x8040(%rsp),%rdi
  402aef:	00 
  402af0:	e8 9e f8 ff ff       	callq  402393 <rio_readlineb>
  402af5:	48 85 c0             	test   %rax,%rax
  402af8:	0f 8f 83 00 00 00    	jg     402b81 <submitr+0x65d>
  402afe:	48 b8 45 72 72 6f 72 	movabs $0x43203a726f727245,%rax
  402b05:	3a 20 43 
  402b08:	48 89 03             	mov    %rax,(%rbx)
  402b0b:	48 b8 6c 69 65 6e 74 	movabs $0x6e7520746e65696c,%rax
  402b12:	20 75 6e 
  402b15:	48 89 43 08          	mov    %rax,0x8(%rbx)
  402b19:	48 b8 61 62 6c 65 20 	movabs $0x206f7420656c6261,%rax
  402b20:	74 6f 20 
  402b23:	48 89 43 10          	mov    %rax,0x10(%rbx)
  402b27:	48 b8 72 65 61 64 20 	movabs $0x6174732064616572,%rax
  402b2e:	73 74 61 
  402b31:	48 89 43 18          	mov    %rax,0x18(%rbx)
  402b35:	48 b8 74 75 73 20 6d 	movabs $0x7373656d20737574,%rax
  402b3c:	65 73 73 
  402b3f:	48 89 43 20          	mov    %rax,0x20(%rbx)
  402b43:	48 b8 61 67 65 20 66 	movabs $0x6d6f726620656761,%rax
  402b4a:	72 6f 6d 
  402b4d:	48 89 43 28          	mov    %rax,0x28(%rbx)
  402b51:	48 b8 20 72 65 73 75 	movabs $0x20746c7573657220,%rax
  402b58:	6c 74 20 
  402b5b:	48 89 43 30          	mov    %rax,0x30(%rbx)
  402b5f:	c7 43 38 73 65 72 76 	movl   $0x76726573,0x38(%rbx)
  402b66:	66 c7 43 3c 65 72    	movw   $0x7265,0x3c(%rbx)
  402b6c:	c6 43 3e 00          	movb   $0x0,0x3e(%rbx)
  402b70:	89 ef                	mov    %ebp,%edi
  402b72:	e8 c9 e1 ff ff       	callq  400d40 <close@plt>
  402b77:	b8 ff ff ff ff       	mov    $0xffffffff,%eax
  402b7c:	e9 d8 00 00 00       	jmpq   402c59 <submitr+0x735>
  402b81:	44 8b 44 24 2c       	mov    0x2c(%rsp),%r8d
  402b86:	41 81 f8 c8 00 00 00 	cmp    $0xc8,%r8d
  402b8d:	74 37                	je     402bc6 <submitr+0x6a2>
  402b8f:	4c 8d 8c 24 40 60 00 	lea    0x6040(%rsp),%r9
  402b96:	00 
  402b97:	b9 48 38 40 00       	mov    $0x403848,%ecx
  402b9c:	48 c7 c2 ff ff ff ff 	mov    $0xffffffffffffffff,%rdx
  402ba3:	be 01 00 00 00       	mov    $0x1,%esi
  402ba8:	48 89 df             	mov    %rbx,%rdi
  402bab:	b8 00 00 00 00       	mov    $0x0,%eax
  402bb0:	e8 eb e2 ff ff       	callq  400ea0 <__sprintf_chk@plt>
  402bb5:	89 ef                	mov    %ebp,%edi
  402bb7:	e8 84 e1 ff ff       	callq  400d40 <close@plt>
  402bbc:	b8 ff ff ff ff       	mov    $0xffffffff,%eax
  402bc1:	e9 93 00 00 00       	jmpq   402c59 <submitr+0x735>
  402bc6:	48 8d 74 24 40       	lea    0x40(%rsp),%rsi
  402bcb:	48 89 df             	mov    %rbx,%rdi
  402bce:	e8 fd e0 ff ff       	callq  400cd0 <strcpy@plt>
  402bd3:	89 ef                	mov    %ebp,%edi
  402bd5:	e8 66 e1 ff ff       	callq  400d40 <close@plt>
  402bda:	0f b6 03             	movzbl (%rbx),%eax
  402bdd:	ba 4f 00 00 00       	mov    $0x4f,%edx
  402be2:	29 c2                	sub    %eax,%edx
  402be4:	75 22                	jne    402c08 <submitr+0x6e4>
  402be6:	0f b6 4b 01          	movzbl 0x1(%rbx),%ecx
  402bea:	b8 4b 00 00 00       	mov    $0x4b,%eax
  402bef:	29 c8                	sub    %ecx,%eax
  402bf1:	75 17                	jne    402c0a <submitr+0x6e6>
  402bf3:	0f b6 4b 02          	movzbl 0x2(%rbx),%ecx
  402bf7:	b8 0a 00 00 00       	mov    $0xa,%eax
  402bfc:	29 c8                	sub    %ecx,%eax
  402bfe:	75 0a                	jne    402c0a <submitr+0x6e6>
  402c00:	0f b6 43 03          	movzbl 0x3(%rbx),%eax
  402c04:	f7 d8                	neg    %eax
  402c06:	eb 02                	jmp    402c0a <submitr+0x6e6>
  402c08:	89 d0                	mov    %edx,%eax
  402c0a:	85 c0                	test   %eax,%eax
  402c0c:	74 38                	je     402c46 <submitr+0x722>
  402c0e:	bf 90 38 40 00       	mov    $0x403890,%edi
  402c13:	b9 05 00 00 00       	mov    $0x5,%ecx
  402c18:	48 89 de             	mov    %rbx,%rsi
  402c1b:	f3 a6                	repz cmpsb %es:(%rdi),%ds:(%rsi)
  402c1d:	0f 97 c1             	seta   %cl
  402c20:	0f 92 c0             	setb   %al
  402c23:	38 c1                	cmp    %al,%cl
  402c25:	74 26                	je     402c4d <submitr+0x729>
  402c27:	85 d2                	test   %edx,%edx
  402c29:	75 10                	jne    402c3b <submitr+0x717>
  402c2b:	0f b6 43 01          	movzbl 0x1(%rbx),%eax
  402c2f:	b2 4b                	mov    $0x4b,%dl
  402c31:	29 c2                	sub    %eax,%edx
  402c33:	75 06                	jne    402c3b <submitr+0x717>
  402c35:	0f b6 53 02          	movzbl 0x2(%rbx),%edx
  402c39:	f7 da                	neg    %edx
  402c3b:	85 d2                	test   %edx,%edx
  402c3d:	75 15                	jne    402c54 <submitr+0x730>
  402c3f:	b8 00 00 00 00       	mov    $0x0,%eax
  402c44:	eb 13                	jmp    402c59 <submitr+0x735>
  402c46:	b8 00 00 00 00       	mov    $0x0,%eax
  402c4b:	eb 0c                	jmp    402c59 <submitr+0x735>
  402c4d:	b8 00 00 00 00       	mov    $0x0,%eax
  402c52:	eb 05                	jmp    402c59 <submitr+0x735>
  402c54:	b8 ff ff ff ff       	mov    $0xffffffff,%eax
  402c59:	48 8b 9c 24 58 a0 00 	mov    0xa058(%rsp),%rbx
  402c60:	00 
  402c61:	64 48 33 1c 25 28 00 	xor    %fs:0x28,%rbx
  402c68:	00 00 
  402c6a:	74 05                	je     402c71 <submitr+0x74d>
  402c6c:	e8 8f e0 ff ff       	callq  400d00 <__stack_chk_fail@plt>
  402c71:	48 81 c4 68 a0 00 00 	add    $0xa068,%rsp
  402c78:	5b                   	pop    %rbx
  402c79:	5d                   	pop    %rbp
  402c7a:	41 5c                	pop    %r12
  402c7c:	41 5d                	pop    %r13
  402c7e:	41 5e                	pop    %r14
  402c80:	41 5f                	pop    %r15
  402c82:	c3                   	retq   

0000000000402c83 <init_timeout>:
  402c83:	53                   	push   %rbx
  402c84:	89 fb                	mov    %edi,%ebx
  402c86:	85 ff                	test   %edi,%edi
  402c88:	74 1f                	je     402ca9 <init_timeout+0x26>
  402c8a:	85 ff                	test   %edi,%edi
  402c8c:	79 05                	jns    402c93 <init_timeout+0x10>
  402c8e:	bb 00 00 00 00       	mov    $0x0,%ebx
  402c93:	be 82 22 40 00       	mov    $0x402282,%esi
  402c98:	bf 0e 00 00 00       	mov    $0xe,%edi
  402c9d:	e8 ce e0 ff ff       	callq  400d70 <signal@plt>
  402ca2:	89 df                	mov    %ebx,%edi
  402ca4:	e8 87 e0 ff ff       	callq  400d30 <alarm@plt>
  402ca9:	5b                   	pop    %rbx
  402caa:	c3                   	retq   

0000000000402cab <init_driver>:
  402cab:	55                   	push   %rbp
  402cac:	53                   	push   %rbx
  402cad:	48 83 ec 28          	sub    $0x28,%rsp
  402cb1:	48 89 fd             	mov    %rdi,%rbp
  402cb4:	64 48 8b 04 25 28 00 	mov    %fs:0x28,%rax
  402cbb:	00 00 
  402cbd:	48 89 44 24 18       	mov    %rax,0x18(%rsp)
  402cc2:	31 c0                	xor    %eax,%eax
  402cc4:	be 01 00 00 00       	mov    $0x1,%esi
  402cc9:	bf 0d 00 00 00       	mov    $0xd,%edi
  402cce:	e8 9d e0 ff ff       	callq  400d70 <signal@plt>
  402cd3:	be 01 00 00 00       	mov    $0x1,%esi
  402cd8:	bf 1d 00 00 00       	mov    $0x1d,%edi
  402cdd:	e8 8e e0 ff ff       	callq  400d70 <signal@plt>
  402ce2:	be 01 00 00 00       	mov    $0x1,%esi
  402ce7:	bf 1d 00 00 00       	mov    $0x1d,%edi
  402cec:	e8 7f e0 ff ff       	callq  400d70 <signal@plt>
  402cf1:	ba 00 00 00 00       	mov    $0x0,%edx
  402cf6:	be 01 00 00 00       	mov    $0x1,%esi
  402cfb:	bf 02 00 00 00       	mov    $0x2,%edi
  402d00:	e8 ab e1 ff ff       	callq  400eb0 <socket@plt>
  402d05:	89 c3                	mov    %eax,%ebx
  402d07:	85 c0                	test   %eax,%eax
  402d09:	79 4f                	jns    402d5a <init_driver+0xaf>
  402d0b:	48 b8 45 72 72 6f 72 	movabs $0x43203a726f727245,%rax
  402d12:	3a 20 43 
  402d15:	48 89 45 00          	mov    %rax,0x0(%rbp)
  402d19:	48 b8 6c 69 65 6e 74 	movabs $0x6e7520746e65696c,%rax
  402d20:	20 75 6e 
  402d23:	48 89 45 08          	mov    %rax,0x8(%rbp)
  402d27:	48 b8 61 62 6c 65 20 	movabs $0x206f7420656c6261,%rax
  402d2e:	74 6f 20 
  402d31:	48 89 45 10          	mov    %rax,0x10(%rbp)
  402d35:	48 b8 63 72 65 61 74 	movabs $0x7320657461657263,%rax
  402d3c:	65 20 73 
  402d3f:	48 89 45 18          	mov    %rax,0x18(%rbp)
  402d43:	c7 45 20 6f 63 6b 65 	movl   $0x656b636f,0x20(%rbp)
  402d4a:	66 c7 45 24 74 00    	movw   $0x74,0x24(%rbp)
  402d50:	b8 ff ff ff ff       	mov    $0xffffffff,%eax
  402d55:	e9 28 01 00 00       	jmpq   402e82 <init_driver+0x1d7>
  402d5a:	bf 95 38 40 00       	mov    $0x403895,%edi
  402d5f:	e8 1c e0 ff ff       	callq  400d80 <gethostbyname@plt>
  402d64:	48 85 c0             	test   %rax,%rax
  402d67:	75 68                	jne    402dd1 <init_driver+0x126>
  402d69:	48 b8 45 72 72 6f 72 	movabs $0x44203a726f727245,%rax
  402d70:	3a 20 44 
  402d73:	48 89 45 00          	mov    %rax,0x0(%rbp)
  402d77:	48 b8 4e 53 20 69 73 	movabs $0x6e7520736920534e,%rax
  402d7e:	20 75 6e 
  402d81:	48 89 45 08          	mov    %rax,0x8(%rbp)
  402d85:	48 b8 61 62 6c 65 20 	movabs $0x206f7420656c6261,%rax
  402d8c:	74 6f 20 
  402d8f:	48 89 45 10          	mov    %rax,0x10(%rbp)
  402d93:	48 b8 72 65 73 6f 6c 	movabs $0x2065766c6f736572,%rax
  402d9a:	76 65 20 
  402d9d:	48 89 45 18          	mov    %rax,0x18(%rbp)
  402da1:	48 b8 73 65 72 76 65 	movabs $0x6120726576726573,%rax
  402da8:	72 20 61 
  402dab:	48 89 45 20          	mov    %rax,0x20(%rbp)
  402daf:	c7 45 28 64 64 72 65 	movl   $0x65726464,0x28(%rbp)
  402db6:	66 c7 45 2c 73 73    	movw   $0x7373,0x2c(%rbp)
  402dbc:	c6 45 2e 00          	movb   $0x0,0x2e(%rbp)
  402dc0:	89 df                	mov    %ebx,%edi
  402dc2:	e8 79 df ff ff       	callq  400d40 <close@plt>
  402dc7:	b8 ff ff ff ff       	mov    $0xffffffff,%eax
  402dcc:	e9 b1 00 00 00       	jmpq   402e82 <init_driver+0x1d7>
  402dd1:	48 c7 04 24 00 00 00 	movq   $0x0,(%rsp)
  402dd8:	00 
  402dd9:	48 c7 44 24 08 00 00 	movq   $0x0,0x8(%rsp)
  402de0:	00 00 
  402de2:	66 c7 04 24 02 00    	movw   $0x2,(%rsp)
  402de8:	48 63 50 14          	movslq 0x14(%rax),%rdx
  402dec:	48 8b 40 18          	mov    0x18(%rax),%rax
  402df0:	48 8b 30             	mov    (%rax),%rsi
  402df3:	48 8d 7c 24 04       	lea    0x4(%rsp),%rdi
  402df8:	b9 0c 00 00 00       	mov    $0xc,%ecx
  402dfd:	e8 8e df ff ff       	callq  400d90 <__memmove_chk@plt>
  402e02:	66 c7 44 24 02 37 2c 	movw   $0x2c37,0x2(%rsp)
  402e09:	ba 10 00 00 00       	mov    $0x10,%edx
  402e0e:	48 89 e6             	mov    %rsp,%rsi
  402e11:	89 df                	mov    %ebx,%edi
  402e13:	e8 68 e0 ff ff       	callq  400e80 <connect@plt>
  402e18:	85 c0                	test   %eax,%eax
  402e1a:	79 50                	jns    402e6c <init_driver+0x1c1>
  402e1c:	48 b8 45 72 72 6f 72 	movabs $0x55203a726f727245,%rax
  402e23:	3a 20 55 
  402e26:	48 89 45 00          	mov    %rax,0x0(%rbp)
  402e2a:	48 b8 6e 61 62 6c 65 	movabs $0x6f7420656c62616e,%rax
  402e31:	20 74 6f 
  402e34:	48 89 45 08          	mov    %rax,0x8(%rbp)
  402e38:	48 b8 20 63 6f 6e 6e 	movabs $0x7463656e6e6f6320,%rax
  402e3f:	65 63 74 
  402e42:	48 89 45 10          	mov    %rax,0x10(%rbp)
  402e46:	48 b8 20 74 6f 20 73 	movabs $0x76726573206f7420,%rax
  402e4d:	65 72 76 
  402e50:	48 89 45 18          	mov    %rax,0x18(%rbp)
  402e54:	66 c7 45 20 65 72    	movw   $0x7265,0x20(%rbp)
  402e5a:	c6 45 22 00          	movb   $0x0,0x22(%rbp)
  402e5e:	89 df                	mov    %ebx,%edi
  402e60:	e8 db de ff ff       	callq  400d40 <close@plt>
  402e65:	b8 ff ff ff ff       	mov    $0xffffffff,%eax
  402e6a:	eb 16                	jmp    402e82 <init_driver+0x1d7>
  402e6c:	89 df                	mov    %ebx,%edi
  402e6e:	e8 cd de ff ff       	callq  400d40 <close@plt>
  402e73:	66 c7 45 00 4f 4b    	movw   $0x4b4f,0x0(%rbp)
  402e79:	c6 45 02 00          	movb   $0x0,0x2(%rbp)
  402e7d:	b8 00 00 00 00       	mov    $0x0,%eax
  402e82:	48 8b 4c 24 18       	mov    0x18(%rsp),%rcx
  402e87:	64 48 33 0c 25 28 00 	xor    %fs:0x28,%rcx
  402e8e:	00 00 
  402e90:	74 05                	je     402e97 <init_driver+0x1ec>
  402e92:	e8 69 de ff ff       	callq  400d00 <__stack_chk_fail@plt>
  402e97:	48 83 c4 28          	add    $0x28,%rsp
  402e9b:	5b                   	pop    %rbx
  402e9c:	5d                   	pop    %rbp
  402e9d:	c3                   	retq   

0000000000402e9e <driver_post>:
  402e9e:	53                   	push   %rbx
  402e9f:	48 83 ec 10          	sub    $0x10,%rsp
  402ea3:	4c 89 cb             	mov    %r9,%rbx
  402ea6:	45 85 c0             	test   %r8d,%r8d
  402ea9:	74 27                	je     402ed2 <driver_post+0x34>
  402eab:	48 89 ca             	mov    %rcx,%rdx
  402eae:	be aa 38 40 00       	mov    $0x4038aa,%esi
  402eb3:	bf 01 00 00 00       	mov    $0x1,%edi
  402eb8:	b8 00 00 00 00       	mov    $0x0,%eax
  402ebd:	e8 5e df ff ff       	callq  400e20 <__printf_chk@plt>
  402ec2:	66 c7 03 4f 4b       	movw   $0x4b4f,(%rbx)
  402ec7:	c6 43 02 00          	movb   $0x0,0x2(%rbx)
  402ecb:	b8 00 00 00 00       	mov    $0x0,%eax
  402ed0:	eb 39                	jmp    402f0b <driver_post+0x6d>
  402ed2:	48 85 ff             	test   %rdi,%rdi
  402ed5:	74 26                	je     402efd <driver_post+0x5f>
  402ed7:	80 3f 00             	cmpb   $0x0,(%rdi)
  402eda:	74 21                	je     402efd <driver_post+0x5f>
  402edc:	4c 89 0c 24          	mov    %r9,(%rsp)
  402ee0:	49 89 c9             	mov    %rcx,%r9
  402ee3:	49 89 d0             	mov    %rdx,%r8
  402ee6:	48 89 f9             	mov    %rdi,%rcx
  402ee9:	48 89 f2             	mov    %rsi,%rdx
  402eec:	be 2c 37 00 00       	mov    $0x372c,%esi
  402ef1:	bf 95 38 40 00       	mov    $0x403895,%edi
  402ef6:	e8 29 f6 ff ff       	callq  402524 <submitr>
  402efb:	eb 0e                	jmp    402f0b <driver_post+0x6d>
  402efd:	66 c7 03 4f 4b       	movw   $0x4b4f,(%rbx)
  402f02:	c6 43 02 00          	movb   $0x0,0x2(%rbx)
  402f06:	b8 00 00 00 00       	mov    $0x0,%eax
  402f0b:	48 83 c4 10          	add    $0x10,%rsp
  402f0f:	5b                   	pop    %rbx
  402f10:	c3                   	retq   

0000000000402f11 <check>:
  402f11:	89 f8                	mov    %edi,%eax
  402f13:	c1 e8 1c             	shr    $0x1c,%eax
  402f16:	85 c0                	test   %eax,%eax
  402f18:	74 1d                	je     402f37 <check+0x26>
  402f1a:	b9 00 00 00 00       	mov    $0x0,%ecx
  402f1f:	eb 0b                	jmp    402f2c <check+0x1b>
  402f21:	89 f8                	mov    %edi,%eax
  402f23:	d3 e8                	shr    %cl,%eax
  402f25:	3c 0a                	cmp    $0xa,%al
  402f27:	74 14                	je     402f3d <check+0x2c>
  402f29:	83 c1 08             	add    $0x8,%ecx
  402f2c:	83 f9 1f             	cmp    $0x1f,%ecx
  402f2f:	7e f0                	jle    402f21 <check+0x10>
  402f31:	b8 01 00 00 00       	mov    $0x1,%eax
  402f36:	c3                   	retq   
  402f37:	b8 00 00 00 00       	mov    $0x0,%eax
  402f3c:	c3                   	retq   
  402f3d:	b8 00 00 00 00       	mov    $0x0,%eax
  402f42:	c3                   	retq   

0000000000402f43 <gencookie>:
  402f43:	53                   	push   %rbx
  402f44:	83 c7 01             	add    $0x1,%edi
  402f47:	e8 64 dd ff ff       	callq  400cb0 <srandom@plt>
  402f4c:	e8 8f de ff ff       	callq  400de0 <random@plt>
  402f51:	89 c3                	mov    %eax,%ebx
  402f53:	89 c7                	mov    %eax,%edi
  402f55:	e8 b7 ff ff ff       	callq  402f11 <check>
  402f5a:	85 c0                	test   %eax,%eax
  402f5c:	74 ee                	je     402f4c <gencookie+0x9>
  402f5e:	89 d8                	mov    %ebx,%eax
  402f60:	5b                   	pop    %rbx
  402f61:	c3                   	retq   
  402f62:	66 2e 0f 1f 84 00 00 	nopw   %cs:0x0(%rax,%rax,1)
  402f69:	00 00 00 
  402f6c:	0f 1f 40 00          	nopl   0x0(%rax)

0000000000402f70 <__libc_csu_init>:
  402f70:	41 57                	push   %r15
  402f72:	41 89 ff             	mov    %edi,%r15d
  402f75:	41 56                	push   %r14
  402f77:	49 89 f6             	mov    %rsi,%r14
  402f7a:	41 55                	push   %r13
  402f7c:	49 89 d5             	mov    %rdx,%r13
  402f7f:	41 54                	push   %r12
  402f81:	4c 8d 25 88 1e 20 00 	lea    0x201e88(%rip),%r12        # 604e10 <__frame_dummy_init_array_entry>
  402f88:	55                   	push   %rbp
  402f89:	48 8d 2d 88 1e 20 00 	lea    0x201e88(%rip),%rbp        # 604e18 <__init_array_end>
  402f90:	53                   	push   %rbx
  402f91:	4c 29 e5             	sub    %r12,%rbp
  402f94:	31 db                	xor    %ebx,%ebx
  402f96:	48 c1 fd 03          	sar    $0x3,%rbp
  402f9a:	48 83 ec 08          	sub    $0x8,%rsp
  402f9e:	e8 bd dc ff ff       	callq  400c60 <_init>
  402fa3:	48 85 ed             	test   %rbp,%rbp
  402fa6:	74 1e                	je     402fc6 <__libc_csu_init+0x56>
  402fa8:	0f 1f 84 00 00 00 00 	nopl   0x0(%rax,%rax,1)
  402faf:	00 
  402fb0:	4c 89 ea             	mov    %r13,%rdx
  402fb3:	4c 89 f6             	mov    %r14,%rsi
  402fb6:	44 89 ff             	mov    %r15d,%edi
  402fb9:	41 ff 14 dc          	callq  *(%r12,%rbx,8)
  402fbd:	48 83 c3 01          	add    $0x1,%rbx
  402fc1:	48 39 eb             	cmp    %rbp,%rbx
  402fc4:	75 ea                	jne    402fb0 <__libc_csu_init+0x40>
  402fc6:	48 83 c4 08          	add    $0x8,%rsp
  402fca:	5b                   	pop    %rbx
  402fcb:	5d                   	pop    %rbp
  402fcc:	41 5c                	pop    %r12
  402fce:	41 5d                	pop    %r13
  402fd0:	41 5e                	pop    %r14
  402fd2:	41 5f                	pop    %r15
  402fd4:	c3                   	retq   
  402fd5:	66 66 2e 0f 1f 84 00 	data32 nopw %cs:0x0(%rax,%rax,1)
  402fdc:	00 00 00 00 

0000000000402fe0 <__libc_csu_fini>:
  402fe0:	f3 c3                	repz retq 

Disassembly of section .fini:

0000000000402fe4 <_fini>:
  402fe4:	48 83 ec 08          	sub    $0x8,%rsp
  402fe8:	48 83 c4 08          	add    $0x8,%rsp
  402fec:	c3                   	retq   
